(lp0
(dp1
VMemtablePostFlush
p2
V1
p3
sVRequestResponseStage
p4
V8
p5
sVWrite
p6
V0
p7
sVCounterMutationStage
p8
V0
p9
sVSampler
p10
V0
p11
sVInternalResponseStage
p12
V0
p13
sVMutationStage
p14
V0
p15
sVCompactionExecutor
p16
V2
p17
sVMemtableFlushWriter
p18
V0
p19
sVSecondaryIndexManagement
p20
V1
p21
sVRead
p22
V0
p23
sVAntiEntropyStage
p24
V1
p25
sVReadRepairStage
p26
V0
p27
sVGossipStage
p28
V0
p29
sVCASWrite
p30
V0
p31
sVPendingRangeCalculator
p32
V1
p33
sVNative-Transport-Requests
p34
V0
p35
sVHintsDispatcher
p36
V2
p37
sVCASRead
p38
V0
p39
sVMemtableReclaimMemory
p40
V1
p41
sVViewWrite
p42
V0
p43
sVPerDiskMemtableFlushWriter_0
p44
V31
p45
sVMigrationStage
p46
V0
p47
sVRangeSlice
p48
V0
p49
sVCacheCleanupExecutor
p50
V1
p51
sVValidationExecutor
p52
V0
p53
sVViewMutationStage
p54
V32
p55
sVMiscStage
p56
V0
p57
sVReadStage
p58
V0
p59
sa(dp60
VMemtablePostFlush
p61
V1
p62
sVRequestResponseStage
p63
V8
p64
sVWrite
p65
V0
p66
sVCounterMutationStage
p67
V0
p68
sVSampler
p69
V0
p70
sVInternalResponseStage
p71
V8
p72
sVMutationStage
p73
V32
p74
sVCompactionExecutor
p75
V2
p76
sVMemtableFlushWriter
p77
V0
p78
sVSecondaryIndexManagement
p79
V0
p80
sVRead
p81
V0
p82
sVAntiEntropyStage
p83
V1
p84
sVReadRepairStage
p85
V0
p86
sVGossipStage
p87
V0
p88
sVCASWrite
p89
V0
p90
sVPendingRangeCalculator
p91
V1
p92
sVNative-Transport-Requests
p93
V0
p94
sVHintsDispatcher
p95
V0
p96
sVCASRead
p97
V0
p98
sVMemtableReclaimMemory
p99
V1
p100
sVViewWrite
p101
V0
p102
sVMiscStage
p103
V0
p104
sVMigrationStage
p105
V1
p106
sVRangeSlice
p107
V0
p108
sVCacheCleanupExecutor
p109
V0
p110
sVValidationExecutor
p111
V0
p112
sVViewMutationStage
p113
V0
p114
sVPerDiskMemtableFlushWriter_0
p115
V0
p116
sVReadStage
p117
V0
p118
sa(dp119
VMemtablePostFlush
p120
V0
p121
sVRequestResponseStage
p122
V0
p123
sVWrite
p124
V0
p125
sVSampler
p126
V0
p127
sVInternalResponseStage
p128
V8
p129
sVMutationStage
p130
V0
p131
sVCompactionExecutor
p132
V0
p133
sVMemtableFlushWriter
p134
V0
p135
sVSecondaryIndexManagement
p136
V0
p137
sVRead
p138
V0
p139
sVAntiEntropyStage
p140
V0
p141
sVReadRepairStage
p142
V0
p143
sVNative-Transport-Requests
p144
V0
p145
sVGossipStage
p146
V0
p147
sVCASWrite
p148
V0
p149
sVPendingRangeCalculator
p150
V1
p151
sVCounterMutationStage
p152
V32
p153
sVHintsDispatcher
p154
V0
p155
sVCASRead
p156
V0
p157
sVMemtableReclaimMemory
p158
V0
p159
sVViewWrite
p160
V0
p161
sVPerDiskMemtableFlushWriter_0
p162
V0
p163
sVMigrationStage
p164
V0
p165
sVRangeSlice
p166
V0
p167
sVCacheCleanupExecutor
p168
V0
p169
sVValidationExecutor
p170
V0
p171
sVViewMutationStage
p172
V0
p173
sVMiscStage
p174
V0
p175
sVReadStage
p176
V1
p177
sa(dp178
VMemtablePostFlush
p179
V0
p180
sVRequestResponseStage
p181
V8
p182
sVSampler
p183
V0
p184
sVWrite
p185
V0
p186
sVNative-Transport-Requests
p187
V0
p188
sVInternalResponseStage
p189
V8
p190
sVMutationStage
p191
V0
p192
sVCompactionExecutor
p193
V2
p194
sVMemtableFlushWriter
p195
V1
p196
sVSecondaryIndexManagement
p197
V0
p198
sVRead
p199
V0
p200
sVAntiEntropyStage
p201
V0
p202
sVReadRepairStage
p203
V8
p204
sVGossipStage
p205
V0
p206
sVCASWrite
p207
V0
p208
sVPendingRangeCalculator
p209
V1
p210
sVCounterMutationStage
p211
V0
p212
sVHintsDispatcher
p213
V2
p214
sVCASRead
p215
V0
p216
sVMemtableReclaimMemory
p217
V1
p218
sVViewWrite
p219
V0
p220
sVMiscStage
p221
V0
p222
sVMigrationStage
p223
V1
p224
sVRangeSlice
p225
V0
p226
sVCacheCleanupExecutor
p227
V0
p228
sVValidationExecutor
p229
V0
p230
sVViewMutationStage
p231
V0
p232
sVPerDiskMemtableFlushWriter_0
p233
V1
p234
sVReadStage
p235
V0
p236
sa(dp237
VMemtablePostFlush
p238
V0
p239
sVRequestResponseStage
p240
V0
p241
sVWrite
p242
V0
p243
sVSampler
p244
V1
p245
sVInternalResponseStage
p246
V8
p247
sVMutationStage
p248
V0
p249
sVCompactionExecutor
p250
V0
p251
sVMemtableFlushWriter
p252
V1
p253
sVSecondaryIndexManagement
p254
V0
p255
sVRead
p256
V0
p257
sVAntiEntropyStage
p258
V0
p259
sVReadRepairStage
p260
V0
p261
sVNative-Transport-Requests
p262
V0
p263
sVGossipStage
p264
V0
p265
sVCASWrite
p266
V0
p267
sVPendingRangeCalculator
p268
V0
p269
sVCounterMutationStage
p270
V0
p271
sVHintsDispatcher
p272
V0
p273
sVCASRead
p274
V0
p275
sVMemtableReclaimMemory
p276
V1
p277
sVViewWrite
p278
V0
p279
sVMiscStage
p280
V0
p281
sVMigrationStage
p282
V1
p283
sVRangeSlice
p284
V0
p285
sVCacheCleanupExecutor
p286
V0
p287
sVValidationExecutor
p288
V0
p289
sVViewMutationStage
p290
V0
p291
sVPerDiskMemtableFlushWriter_0
p292
V0
p293
sVReadStage
p294
V0
p295
sa(dp296
VMemtablePostFlush
p297
V49
p298
sVRequestResponseStage
p299
V0
p300
sVWrite
p301
V0
p302
sVCounterMutationStage
p303
V0
p304
sVSampler
p305
V0
p306
sVInternalResponseStage
p307
V0
p308
sVMutationStage
p309
V0
p310
sVCompactionExecutor
p311
V0
p312
sVMemtableFlushWriter
p313
V0
p314
sVSecondaryIndexManagement
p315
V0
p316
sVRead
p317
V0
p318
sVAntiEntropyStage
p319
V1
p320
sVReadRepairStage
p321
V0
p322
sVGossipStage
p323
V0
p324
sVCASWrite
p325
V0
p326
sVPendingRangeCalculator
p327
V1
p328
sVNative-Transport-Requests
p329
V0
p330
sVHintsDispatcher
p331
V0
p332
sVCASRead
p333
V0
p334
sVMemtableReclaimMemory
p335
V0
p336
sVViewWrite
p337
V0
p338
sVMiscStage
p339
V0
p340
sVMigrationStage
p341
V1
p342
sVRangeSlice
p343
V0
p344
sVCacheCleanupExecutor
p345
V0
p346
sVValidationExecutor
p347
V0
p348
sVViewMutationStage
p349
V0
p350
sVPerDiskMemtableFlushWriter_0
p351
V31
p352
sVReadStage
p353
V32
p354
sa(dp355
VMemtablePostFlush
p356
V0
p357
sVRequestResponseStage
p358
V0
p359
sVWrite
p360
V0
p361
sVCounterMutationStage
p362
V32
p363
sVSampler
p364
V1
p365
sVInternalResponseStage
p366
V0
p367
sVMutationStage
p368
V0
p369
sVCompactionExecutor
p370
V0
p371
sVMemtableFlushWriter
p372
V1
p373
sVSecondaryIndexManagement
p374
V0
p375
sVRead
p376
V0
p377
sVAntiEntropyStage
p378
V0
p379
sVReadRepairStage
p380
V8
p381
sVGossipStage
p382
V1
p383
sVCASWrite
p384
V0
p385
sVPendingRangeCalculator
p386
V0
p387
sVNative-Transport-Requests
p388
V0
p389
sVHintsDispatcher
p390
V0
p391
sVCASRead
p392
V0
p393
sVMemtableReclaimMemory
p394
V0
p395
sVViewWrite
p396
V0
p397
sVPerDiskMemtableFlushWriter_0
p398
V0
p399
sVMigrationStage
p400
V0
p401
sVRangeSlice
p402
V0
p403
sVCacheCleanupExecutor
p404
V0
p405
sVValidationExecutor
p406
V0
p407
sVViewMutationStage
p408
V0
p409
sVMiscStage
p410
V0
p411
sVReadStage
p412
V1
p413
sa(dp414
VMemtablePostFlush
p415
V49
p416
sVRequestResponseStage
p417
V0
p418
sVWrite
p419
V0
p420
sVSampler
p421
V1
p422
sVInternalResponseStage
p423
V2456
p424
sVMutationStage
p425
V32
p426
sVCompactionExecutor
p427
V0
p428
sVMemtableFlushWriter
p429
V0
p430
sVSecondaryIndexManagement
p431
V0
p432
sVRead
p433
V0
p434
sVAntiEntropyStage
p435
V0
p436
sVReadRepairStage
p437
V0
p438
sVNative-Transport-Requests
p439
V0
p440
sVGossipStage
p441
V1
p442
sVCASWrite
p443
V0
p444
sVPendingRangeCalculator
p445
V1
p446
sVCounterMutationStage
p447
V0
p448
sVHintsDispatcher
p449
V0
p450
sVCASRead
p451
V0
p452
sVMemtableReclaimMemory
p453
V1
p454
sVViewWrite
p455
V0
p456
sVPerDiskMemtableFlushWriter_0
p457
V1
p458
sVMigrationStage
p459
V2456
p460
sVRangeSlice
p461
V0
p462
sVCacheCleanupExecutor
p463
V0
p464
sVValidationExecutor
p465
V0
p466
sVViewMutationStage
p467
V0
p468
sVMiscStage
p469
V1
p470
sVReadStage
p471
V0
p472
sa(dp473
VMemtablePostFlush
p474
V49
p475
sVRequestResponseStage
p476
V0
p477
sVWrite
p478
V0
p479
sVSampler
p480
V0
p481
sVInternalResponseStage
p482
V0
p483
sVMutationStage
p484
V0
p485
sVCompactionExecutor
p486
V0
p487
sVMemtableFlushWriter
p488
V1
p489
sVSecondaryIndexManagement
p490
V0
p491
sVRead
p492
V0
p493
sVAntiEntropyStage
p494
V0
p495
sVReadRepairStage
p496
V0
p497
sVNative-Transport-Requests
p498
V0
p499
sVGossipStage
p500
V0
p501
sVCASWrite
p502
V0
p503
sVPendingRangeCalculator
p504
V0
p505
sVCounterMutationStage
p506
V0
p507
sVHintsDispatcher
p508
V0
p509
sVCASRead
p510
V0
p511
sVMemtableReclaimMemory
p512
V0
p513
sVViewWrite
p514
V0
p515
sVPerDiskMemtableFlushWriter_0
p516
V1
p517
sVMigrationStage
p518
V0
p519
sVRangeSlice
p520
V0
p521
sVCacheCleanupExecutor
p522
V0
p523
sVValidationExecutor
p524
V0
p525
sVViewMutationStage
p526
V32
p527
sVMiscStage
p528
V0
p529
sVReadStage
p530
V32
p531
sa(dp532
VMemtablePostFlush
p533
V1
p534
sVRequestResponseStage
p535
V8
p536
sVWrite
p537
V0
p538
sVSampler
p539
V0
p540
sVInternalResponseStage
p541
V8
p542
sVMutationStage
p543
V0
p544
sVCompactionExecutor
p545
V2
p546
sVMemtableFlushWriter
p547
V31
p548
sVSecondaryIndexManagement
p549
V0
p550
sVRead
p551
V0
p552
sVAntiEntropyStage
p553
V0
p554
sVReadRepairStage
p555
V0
p556
sVNative-Transport-Requests
p557
V0
p558
sVGossipStage
p559
V0
p560
sVCASWrite
p561
V0
p562
sVPendingRangeCalculator
p563
V0
p564
sVCounterMutationStage
p565
V0
p566
sVHintsDispatcher
p567
V0
p568
sVCASRead
p569
V0
p570
sVMemtableReclaimMemory
p571
V0
p572
sVViewWrite
p573
V0
p574
sVMiscStage
p575
V0
p576
sVMigrationStage
p577
V0
p578
sVRangeSlice
p579
V0
p580
sVCacheCleanupExecutor
p581
V1
p582
sVValidationExecutor
p583
V2147483647
p584
sVViewMutationStage
p585
V0
p586
sVPerDiskMemtableFlushWriter_0
p587
V0
p588
sVReadStage
p589
V0
p590
sa(dp591
VMemtablePostFlush
p592
V49
p593
sVRequestResponseStage
p594
V0
p595
sVWrite
p596
V0
p597
sVCounterMutationStage
p598
V0
p599
sVSampler
p600
V0
p601
sVInternalResponseStage
p602
V0
p603
sVMutationStage
p604
V739
p605
sVCompactionExecutor
p606
V0
p607
sVMemtableFlushWriter
p608
V0
p609
sVSecondaryIndexManagement
p610
V0
p611
sVRead
p612
V0
p613
sVAntiEntropyStage
p614
V0
p615
sVReadRepairStage
p616
V0
p617
sVGossipStage
p618
V0
p619
sVCASWrite
p620
V0
p621
sVPendingRangeCalculator
p622
V1
p623
sVNative-Transport-Requests
p624
V128
p625
sVHintsDispatcher
p626
V2
p627
sVCASRead
p628
V0
p629
sVMemtableReclaimMemory
p630
V0
p631
sVViewWrite
p632
V0
p633
sVPerDiskMemtableFlushWriter_0
p634
V0
p635
sVMigrationStage
p636
V0
p637
sVRangeSlice
p638
V0
p639
sVCacheCleanupExecutor
p640
V1
p641
sVValidationExecutor
p642
V2147483647
p643
sVViewMutationStage
p644
V0
p645
sVMiscStage
p646
V1
p647
sVReadStage
p648
V1
p649
sa(dp650
VMemtablePostFlush
p651
V0
p652
sVRequestResponseStage
p653
V0
p654
sVWrite
p655
V0
p656
sVCounterMutationStage
p657
V0
p658
sVSampler
p659
V0
p660
sVInternalResponseStage
p661
V8
p662
sVMutationStage
p663
V0
p664
sVCompactionExecutor
p665
V2
p666
sVMemtableFlushWriter
p667
V0
p668
sVSecondaryIndexManagement
p669
V0
p670
sVRead
p671
V0
p672
sVAntiEntropyStage
p673
V0
p674
sVReadRepairStage
p675
V8
p676
sVGossipStage
p677
V1
p678
sVCASWrite
p679
V0
p680
sVPendingRangeCalculator
p681
V0
p682
sVNative-Transport-Requests
p683
V0
p684
sVHintsDispatcher
p685
V0
p686
sVCASRead
p687
V0
p688
sVMemtableReclaimMemory
p689
V0
p690
sVViewWrite
p691
V0
p692
sVPerDiskMemtableFlushWriter_0
p693
V1
p694
sVMigrationStage
p695
V2456
p696
sVRangeSlice
p697
V0
p698
sVCacheCleanupExecutor
p699
V1
p700
sVValidationExecutor
p701
V0
p702
sVViewMutationStage
p703
V0
p704
sVMiscStage
p705
V0
p706
sVReadStage
p707
V0
p708
sa(dp709
VMemtablePostFlush
p710
V0
p711
sVRequestResponseStage
p712
V0
p713
sVWrite
p714
V0
p715
sVSampler
p716
V1
p717
sVInternalResponseStage
p718
V8
p719
sVMutationStage
p720
V32
p721
sVCompactionExecutor
p722
V2
p723
sVMemtableFlushWriter
p724
V1
p725
sVSecondaryIndexManagement
p726
V0
p727
sVRead
p728
V0
p729
sVAntiEntropyStage
p730
V0
p731
sVReadRepairStage
p732
V8
p733
sVNative-Transport-Requests
p734
V0
p735
sVGossipStage
p736
V1
p737
sVCASWrite
p738
V0
p739
sVPendingRangeCalculator
p740
V0
p741
sVCounterMutationStage
p742
V32
p743
sVHintsDispatcher
p744
V0
p745
sVCASRead
p746
V0
p747
sVMemtableReclaimMemory
p748
V0
p749
sVViewWrite
p750
V0
p751
sVPerDiskMemtableFlushWriter_0
p752
V1
p753
sVMigrationStage
p754
V2457
p755
sVRangeSlice
p756
V0
p757
sVCacheCleanupExecutor
p758
V0
p759
sVValidationExecutor
p760
V0
p761
sVViewMutationStage
p762
V0
p763
sVMiscStage
p764
V0
p765
sVReadStage
p766
V1
p767
sa(dp768
VMemtablePostFlush
p769
V1
p770
sVRequestResponseStage
p771
V0
p772
sVWrite
p773
V0
p774
sVSampler
p775
V0
p776
sVInternalResponseStage
p777
V0
p778
sVMutationStage
p779
V0
p780
sVCompactionExecutor
p781
V0
p782
sVMemtableFlushWriter
p783
V1
p784
sVSecondaryIndexManagement
p785
V0
p786
sVRead
p787
V0
p788
sVAntiEntropyStage
p789
V1
p790
sVReadRepairStage
p791
V0
p792
sVNative-Transport-Requests
p793
V0
p794
sVGossipStage
p795
V0
p796
sVCASWrite
p797
V0
p798
sVPendingRangeCalculator
p799
V0
p800
sVCounterMutationStage
p801
V0
p802
sVHintsDispatcher
p803
V0
p804
sVCASRead
p805
V0
p806
sVMemtableReclaimMemory
p807
V0
p808
sVViewWrite
p809
V0
p810
sVMiscStage
p811
V0
p812
sVMigrationStage
p813
V2457
p814
sVRangeSlice
p815
V0
p816
sVCacheCleanupExecutor
p817
V0
p818
sVValidationExecutor
p819
V0
p820
sVViewMutationStage
p821
V0
p822
sVPerDiskMemtableFlushWriter_0
p823
V1
p824
sVReadStage
p825
V0
p826
sa(dp827
VMemtablePostFlush
p828
V1
p829
sVRequestResponseStage
p830
V8
p831
sVWrite
p832
V0
p833
sVCounterMutationStage
p834
V0
p835
sVSampler
p836
V0
p837
sVInternalResponseStage
p838
V2457
p839
sVMutationStage
p840
V0
p841
sVCompactionExecutor
p842
V0
p843
sVMemtableFlushWriter
p844
V0
p845
sVSecondaryIndexManagement
p846
V0
p847
sVRead
p848
V0
p849
sVAntiEntropyStage
p850
V0
p851
sVReadRepairStage
p852
V0
p853
sVGossipStage
p854
V0
p855
sVCASWrite
p856
V0
p857
sVPendingRangeCalculator
p858
V1
p859
sVNative-Transport-Requests
p860
V128
p861
sVHintsDispatcher
p862
V2
p863
sVCASRead
p864
V0
p865
sVMemtableReclaimMemory
p866
V0
p867
sVViewWrite
p868
V0
p869
sVMiscStage
p870
V0
p871
sVMigrationStage
p872
V0
p873
sVRangeSlice
p874
V0
p875
sVCacheCleanupExecutor
p876
V0
p877
sVValidationExecutor
p878
V0
p879
sVViewMutationStage
p880
V32
p881
sVPerDiskMemtableFlushWriter_0
p882
V1
p883
sVReadStage
p884
V1
p885
sa(dp886
VMemtablePostFlush
p887
V49
p888
sVRequestResponseStage
p889
V0
p890
sVWrite
p891
V0
p892
sVCounterMutationStage
p893
V0
p894
sVSampler
p895
V0
p896
sVInternalResponseStage
p897
V8
p898
sVMutationStage
p899
V739
p900
sVCompactionExecutor
p901
V2
p902
sVMemtableFlushWriter
p903
V0
p904
sVSecondaryIndexManagement
p905
V1
p906
sVRead
p907
V0
p908
sVAntiEntropyStage
p909
V1
p910
sVReadRepairStage
p911
V0
p912
sVGossipStage
p913
V1
p914
sVCASWrite
p915
V0
p916
sVPendingRangeCalculator
p917
V0
p918
sVNative-Transport-Requests
p919
V128
p920
sVHintsDispatcher
p921
V0
p922
sVCASRead
p923
V0
p924
sVMemtableReclaimMemory
p925
V0
p926
sVViewWrite
p927
V0
p928
sVMiscStage
p929
V0
p930
sVMigrationStage
p931
V2457
p932
sVRangeSlice
p933
V0
p934
sVCacheCleanupExecutor
p935
V0
p936
sVValidationExecutor
p937
V0
p938
sVViewMutationStage
p939
V0
p940
sVPerDiskMemtableFlushWriter_0
p941
V31
p942
sVReadStage
p943
V1
p944
sa(dp945
VMemtablePostFlush
p946
V0
p947
sVRequestResponseStage
p948
V0
p949
sVWrite
p950
V0
p951
sVCounterMutationStage
p952
V0
p953
sVSampler
p954
V0
p955
sVInternalResponseStage
p956
V0
p957
sVMutationStage
p958
V0
p959
sVCompactionExecutor
p960
V0
p961
sVMemtableFlushWriter
p962
V31
p963
sVSecondaryIndexManagement
p964
V0
p965
sVRead
p966
V0
p967
sVAntiEntropyStage
p968
V0
p969
sVReadRepairStage
p970
V0
p971
sVGossipStage
p972
V1
p973
sVCASWrite
p974
V0
p975
sVPendingRangeCalculator
p976
V1
p977
sVNative-Transport-Requests
p978
V128
p979
sVHintsDispatcher
p980
V2
p981
sVCASRead
p982
V0
p983
sVMemtableReclaimMemory
p984
V1
p985
sVViewWrite
p986
V0
p987
sVPerDiskMemtableFlushWriter_0
p988
V31
p989
sVMigrationStage
p990
V2457
p991
sVRangeSlice
p992
V0
p993
sVCacheCleanupExecutor
p994
V0
p995
sVValidationExecutor
p996
V0
p997
sVViewMutationStage
p998
V0
p999
sVMiscStage
p1000
V1
p1001
sVReadStage
p1002
V0
p1003
sa(dp1004
VMemtablePostFlush
p1005
V1
p1006
sVRequestResponseStage
p1007
V0
p1008
sVWrite
p1009
V0
p1010
sVCounterMutationStage
p1011
V0
p1012
sVSampler
p1013
V1
p1014
sVInternalResponseStage
p1015
V8
p1016
sVMutationStage
p1017
V739
p1018
sVCompactionExecutor
p1019
V0
p1020
sVMemtableFlushWriter
p1021
V0
p1022
sVSecondaryIndexManagement
p1023
V0
p1024
sVRead
p1025
V0
p1026
sVAntiEntropyStage
p1027
V0
p1028
sVReadRepairStage
p1029
V0
p1030
sVGossipStage
p1031
V1
p1032
sVCASWrite
p1033
V0
p1034
sVPendingRangeCalculator
p1035
V1
p1036
sVNative-Transport-Requests
p1037
V0
p1038
sVHintsDispatcher
p1039
V0
p1040
sVCASRead
p1041
V0
p1042
sVMemtableReclaimMemory
p1043
V0
p1044
sVViewWrite
p1045
V0
p1046
sVMiscStage
p1047
V0
p1048
sVMigrationStage
p1049
V1
p1050
sVRangeSlice
p1051
V0
p1052
sVCacheCleanupExecutor
p1053
V0
p1054
sVValidationExecutor
p1055
V0
p1056
sVViewMutationStage
p1057
V0
p1058
sVPerDiskMemtableFlushWriter_0
p1059
V31
p1060
sVReadStage
p1061
V0
p1062
sa(dp1063
VMemtablePostFlush
p1064
V0
p1065
sVRequestResponseStage
p1066
V0
p1067
sVWrite
p1068
V0
p1069
sVSampler
p1070
V0
p1071
sVInternalResponseStage
p1072
V0
p1073
sVMutationStage
p1074
V32
p1075
sVCompactionExecutor
p1076
V0
p1077
sVMemtableFlushWriter
p1078
V1
p1079
sVSecondaryIndexManagement
p1080
V1
p1081
sVRead
p1082
V0
p1083
sVAntiEntropyStage
p1084
V0
p1085
sVReadRepairStage
p1086
V0
p1087
sVNative-Transport-Requests
p1088
V0
p1089
sVGossipStage
p1090
V0
p1091
sVCASWrite
p1092
V0
p1093
sVPendingRangeCalculator
p1094
V0
p1095
sVCounterMutationStage
p1096
V32
p1097
sVHintsDispatcher
p1098
V0
p1099
sVCASRead
p1100
V0
p1101
sVMemtableReclaimMemory
p1102
V1
p1103
sVViewWrite
p1104
V0
p1105
sVMiscStage
p1106
V0
p1107
sVMigrationStage
p1108
V0
p1109
sVRangeSlice
p1110
V0
p1111
sVCacheCleanupExecutor
p1112
V1
p1113
sVValidationExecutor
p1114
V0
p1115
sVViewMutationStage
p1116
V0
p1117
sVPerDiskMemtableFlushWriter_0
p1118
V0
p1119
sVReadStage
p1120
V0
p1121
sa(dp1122
VMemtablePostFlush
p1123
V49
p1124
sVRequestResponseStage
p1125
V8
p1126
sVWrite
p1127
V0
p1128
sVCounterMutationStage
p1129
V0
p1130
sVSampler
p1131
V0
p1132
sVInternalResponseStage
p1133
V0
p1134
sVMutationStage
p1135
V32
p1136
sVCompactionExecutor
p1137
V0
p1138
sVMemtableFlushWriter
p1139
V0
p1140
sVSecondaryIndexManagement
p1141
V1
p1142
sVRead
p1143
V0
p1144
sVAntiEntropyStage
p1145
V0
p1146
sVReadRepairStage
p1147
V0
p1148
sVGossipStage
p1149
V1
p1150
sVCASWrite
p1151
V0
p1152
sVPendingRangeCalculator
p1153
V0
p1154
sVNative-Transport-Requests
p1155
V128
p1156
sVHintsDispatcher
p1157
V2
p1158
sVCASRead
p1159
V0
p1160
sVMemtableReclaimMemory
p1161
V31
p1162
sVViewWrite
p1163
V0
p1164
sVMiscStage
p1165
V0
p1166
sVMigrationStage
p1167
V2458
p1168
sVRangeSlice
p1169
V0
p1170
sVCacheCleanupExecutor
p1171
V0
p1172
sVValidationExecutor
p1173
V0
p1174
sVViewMutationStage
p1175
V32
p1176
sVPerDiskMemtableFlushWriter_0
p1177
V1
p1178
sVReadStage
p1179
V32
p1180
sa(dp1181
VMemtablePostFlush
p1182
V1
p1183
sVRequestResponseStage
p1184
V8
p1185
sVWrite
p1186
V0
p1187
sVSampler
p1188
V0
p1189
sVInternalResponseStage
p1190
V8
p1191
sVMutationStage
p1192
V0
p1193
sVCompactionExecutor
p1194
V6675
p1195
sVMemtableFlushWriter
p1196
V0
p1197
sVSecondaryIndexManagement
p1198
V0
p1199
sVRead
p1200
V0
p1201
sVAntiEntropyStage
p1202
V1
p1203
sVReadRepairStage
p1204
V0
p1205
sVNative-Transport-Requests
p1206
V0
p1207
sVGossipStage
p1208
V0
p1209
sVCASWrite
p1210
V0
p1211
sVPendingRangeCalculator
p1212
V0
p1213
sVCounterMutationStage
p1214
V0
p1215
sVHintsDispatcher
p1216
V2
p1217
sVCASRead
p1218
V0
p1219
sVMemtableReclaimMemory
p1220
V0
p1221
sVViewWrite
p1222
V0
p1223
sVPerDiskMemtableFlushWriter_0
p1224
V0
p1225
sVMigrationStage
p1226
V2458
p1227
sVRangeSlice
p1228
V0
p1229
sVCacheCleanupExecutor
p1230
V0
p1231
sVValidationExecutor
p1232
V0
p1233
sVViewMutationStage
p1234
V0
p1235
sVMiscStage
p1236
V0
p1237
sVReadStage
p1238
V0
p1239
sa(dp1240
VMemtablePostFlush
p1241
V49
p1242
sVRequestResponseStage
p1243
V0
p1244
sVWrite
p1245
V0
p1246
sVCounterMutationStage
p1247
V0
p1248
sVSampler
p1249
V0
p1250
sVInternalResponseStage
p1251
V0
p1252
sVMutationStage
p1253
V32
p1254
sVCompactionExecutor
p1255
V0
p1256
sVMemtableFlushWriter
p1257
V1
p1258
sVSecondaryIndexManagement
p1259
V1
p1260
sVRead
p1261
V0
p1262
sVAntiEntropyStage
p1263
V0
p1264
sVReadRepairStage
p1265
V0
p1266
sVGossipStage
p1267
V1
p1268
sVCASWrite
p1269
V0
p1270
sVPendingRangeCalculator
p1271
V1
p1272
sVNative-Transport-Requests
p1273
V0
p1274
sVHintsDispatcher
p1275
V0
p1276
sVCASRead
p1277
V0
p1278
sVMemtableReclaimMemory
p1279
V0
p1280
sVViewWrite
p1281
V0
p1282
sVMiscStage
p1283
V0
p1284
sVMigrationStage
p1285
V1
p1286
sVRangeSlice
p1287
V0
p1288
sVCacheCleanupExecutor
p1289
V0
p1290
sVValidationExecutor
p1291
V0
p1292
sVViewMutationStage
p1293
V0
p1294
sVPerDiskMemtableFlushWriter_0
p1295
V31
p1296
sVReadStage
p1297
V0
p1298
sa(dp1299
VMemtablePostFlush
p1300
V49
p1301
sVRequestResponseStage
p1302
V8
p1303
sVWrite
p1304
V0
p1305
sVCounterMutationStage
p1306
V0
p1307
sVSampler
p1308
V0
p1309
sVInternalResponseStage
p1310
V8
p1311
sVMutationStage
p1312
V0
p1313
sVCompactionExecutor
p1314
V6675
p1315
sVMemtableFlushWriter
p1316
V0
p1317
sVSecondaryIndexManagement
p1318
V0
p1319
sVRead
p1320
V0
p1321
sVAntiEntropyStage
p1322
V0
p1323
sVReadRepairStage
p1324
V0
p1325
sVGossipStage
p1326
V0
p1327
sVCASWrite
p1328
V0
p1329
sVPendingRangeCalculator
p1330
V1
p1331
sVNative-Transport-Requests
p1332
V0
p1333
sVHintsDispatcher
p1334
V0
p1335
sVCASRead
p1336
V0
p1337
sVMemtableReclaimMemory
p1338
V0
p1339
sVViewWrite
p1340
V0
p1341
sVMiscStage
p1342
V0
p1343
sVMigrationStage
p1344
V0
p1345
sVRangeSlice
p1346
V0
p1347
sVCacheCleanupExecutor
p1348
V1
p1349
sVValidationExecutor
p1350
V2147483647
p1351
sVViewMutationStage
p1352
V0
p1353
sVPerDiskMemtableFlushWriter_0
p1354
V1
p1355
sVReadStage
p1356
V32
p1357
sa(dp1358
VMemtablePostFlush
p1359
V1
p1360
sVRequestResponseStage
p1361
V0
p1362
sVWrite
p1363
V0
p1364
sVSampler
p1365
V0
p1366
sVInternalResponseStage
p1367
V2459
p1368
sVMutationStage
p1369
V32
p1370
sVCompactionExecutor
p1371
V0
p1372
sVMemtableFlushWriter
p1373
V1
p1374
sVSecondaryIndexManagement
p1375
V0
p1376
sVRead
p1377
V0
p1378
sVAntiEntropyStage
p1379
V1
p1380
sVReadRepairStage
p1381
V0
p1382
sVNative-Transport-Requests
p1383
V0
p1384
sVGossipStage
p1385
V0
p1386
sVCASWrite
p1387
V0
p1388
sVPendingRangeCalculator
p1389
V0
p1390
sVCounterMutationStage
p1391
V0
p1392
sVHintsDispatcher
p1393
V2
p1394
sVCASRead
p1395
V0
p1396
sVMemtableReclaimMemory
p1397
V1
p1398
sVViewWrite
p1399
V0
p1400
sVPerDiskMemtableFlushWriter_0
p1401
V0
p1402
sVMigrationStage
p1403
V0
p1404
sVRangeSlice
p1405
V0
p1406
sVCacheCleanupExecutor
p1407
V0
p1408
sVValidationExecutor
p1409
V2147483647
p1410
sVViewMutationStage
p1411
V32
p1412
sVMiscStage
p1413
V0
p1414
sVReadStage
p1415
V1
p1416
sa(dp1417
VMemtablePostFlush
p1418
V1
p1419
sVRequestResponseStage
p1420
V8
p1421
sVWrite
p1422
V0
p1423
sVCounterMutationStage
p1424
V0
p1425
sVSampler
p1426
V1
p1427
sVInternalResponseStage
p1428
V0
p1429
sVMutationStage
p1430
V0
p1431
sVCompactionExecutor
p1432
V2
p1433
sVMemtableFlushWriter
p1434
V1
p1435
sVSecondaryIndexManagement
p1436
V0
p1437
sVRead
p1438
V0
p1439
sVAntiEntropyStage
p1440
V0
p1441
sVReadRepairStage
p1442
V8
p1443
sVGossipStage
p1444
V0
p1445
sVCASWrite
p1446
V0
p1447
sVPendingRangeCalculator
p1448
V0
p1449
sVNative-Transport-Requests
p1450
V128
p1451
sVHintsDispatcher
p1452
V0
p1453
sVCASRead
p1454
V0
p1455
sVMemtableReclaimMemory
p1456
V0
p1457
sVViewWrite
p1458
V0
p1459
sVMiscStage
p1460
V1
p1461
sVMigrationStage
p1462
V0
p1463
sVRangeSlice
p1464
V0
p1465
sVCacheCleanupExecutor
p1466
V0
p1467
sVValidationExecutor
p1468
V0
p1469
sVViewMutationStage
p1470
V0
p1471
sVPerDiskMemtableFlushWriter_0
p1472
V31
p1473
sVReadStage
p1474
V0
p1475
sa(dp1476
VMemtablePostFlush
p1477
V49
p1478
sVRequestResponseStage
p1479
V0
p1480
sVWrite
p1481
V0
p1482
sVSampler
p1483
V0
p1484
sVInternalResponseStage
p1485
V0
p1486
sVMutationStage
p1487
V0
p1488
sVCompactionExecutor
p1489
V6675
p1490
sVMemtableFlushWriter
p1491
V1
p1492
sVSecondaryIndexManagement
p1493
V1
p1494
sVRead
p1495
V0
p1496
sVAntiEntropyStage
p1497
V0
p1498
sVReadRepairStage
p1499
V0
p1500
sVNative-Transport-Requests
p1501
V0
p1502
sVGossipStage
p1503
V0
p1504
sVCASWrite
p1505
V0
p1506
sVPendingRangeCalculator
p1507
V1
p1508
sVCounterMutationStage
p1509
V0
p1510
sVHintsDispatcher
p1511
V0
p1512
sVCASRead
p1513
V0
p1514
sVMemtableReclaimMemory
p1515
V1
p1516
sVViewWrite
p1517
V0
p1518
sVPerDiskMemtableFlushWriter_0
p1519
V31
p1520
sVMigrationStage
p1521
V2459
p1522
sVRangeSlice
p1523
V0
p1524
sVCacheCleanupExecutor
p1525
V0
p1526
sVValidationExecutor
p1527
V2147483647
p1528
sVViewMutationStage
p1529
V32
p1530
sVMiscStage
p1531
V0
p1532
sVReadStage
p1533
V0
p1534
sa(dp1535
VMemtablePostFlush
p1536
V0
p1537
sVRequestResponseStage
p1538
V0
p1539
sVWrite
p1540
V0
p1541
sVSampler
p1542
V1
p1543
sVInternalResponseStage
p1544
V2459
p1545
sVMutationStage
p1546
V0
p1547
sVCompactionExecutor
p1548
V2
p1549
sVMemtableFlushWriter
p1550
V31
p1551
sVSecondaryIndexManagement
p1552
V0
p1553
sVRead
p1554
V0
p1555
sVAntiEntropyStage
p1556
V0
p1557
sVReadRepairStage
p1558
V0
p1559
sVNative-Transport-Requests
p1560
V0
p1561
sVGossipStage
p1562
V0
p1563
sVCASWrite
p1564
V0
p1565
sVPendingRangeCalculator
p1566
V0
p1567
sVCounterMutationStage
p1568
V0
p1569
sVHintsDispatcher
p1570
V2
p1571
sVCASRead
p1572
V0
p1573
sVMemtableReclaimMemory
p1574
V0
p1575
sVViewWrite
p1576
V0
p1577
sVPerDiskMemtableFlushWriter_0
p1578
V31
p1579
sVMigrationStage
p1580
V1
p1581
sVRangeSlice
p1582
V0
p1583
sVCacheCleanupExecutor
p1584
V1
p1585
sVValidationExecutor
p1586
V0
p1587
sVViewMutationStage
p1588
V0
p1589
sVMiscStage
p1590
V0
p1591
sVReadStage
p1592
V0
p1593
sa(dp1594
VMemtablePostFlush
p1595
V0
p1596
sVRequestResponseStage
p1597
V0
p1598
sVSampler
p1599
V0
p1600
sVWrite
p1601
V0
p1602
sVCounterMutationStage
p1603
V0
p1604
sVInternalResponseStage
p1605
V0
p1606
sVMutationStage
p1607
V0
p1608
sVCompactionExecutor
p1609
V6675
p1610
sVMemtableFlushWriter
p1611
V0
p1612
sVSecondaryIndexManagement
p1613
V0
p1614
sVRead
p1615
V0
p1616
sVAntiEntropyStage
p1617
V0
p1618
sVReadRepairStage
p1619
V0
p1620
sVGossipStage
p1621
V1
p1622
sVCASWrite
p1623
V0
p1624
sVPendingRangeCalculator
p1625
V0
p1626
sVNative-Transport-Requests
p1627
V0
p1628
sVHintsDispatcher
p1629
V0
p1630
sVCASRead
p1631
V0
p1632
sVMemtableReclaimMemory
p1633
V0
p1634
sVViewWrite
p1635
V0
p1636
sVPerDiskMemtableFlushWriter_0
p1637
V0
p1638
sVMigrationStage
p1639
V0
p1640
sVRangeSlice
p1641
V0
p1642
sVCacheCleanupExecutor
p1643
V0
p1644
sVValidationExecutor
p1645
V0
p1646
sVViewMutationStage
p1647
V0
p1648
sVMiscStage
p1649
V0
p1650
sVReadStage
p1651
V32
p1652
sa(dp1653
VMemtablePostFlush
p1654
V0
p1655
sVRequestResponseStage
p1656
V0
p1657
sVWrite
p1658
V0
p1659
sVCounterMutationStage
p1660
V0
p1661
sVSampler
p1662
V1
p1663
sVInternalResponseStage
p1664
V0
p1665
sVMutationStage
p1666
V739
p1667
sVCompactionExecutor
p1668
V2
p1669
sVMemtableFlushWriter
p1670
V31
p1671
sVSecondaryIndexManagement
p1672
V0
p1673
sVRead
p1674
V0
p1675
sVAntiEntropyStage
p1676
V0
p1677
sVReadRepairStage
p1678
V0
p1679
sVGossipStage
p1680
V0
p1681
sVCASWrite
p1682
V0
p1683
sVPendingRangeCalculator
p1684
V1
p1685
sVNative-Transport-Requests
p1686
V128
p1687
sVHintsDispatcher
p1688
V0
p1689
sVCASRead
p1690
V0
p1691
sVMemtableReclaimMemory
p1692
V1
p1693
sVViewWrite
p1694
V0
p1695
sVPerDiskMemtableFlushWriter_0
p1696
V31
p1697
sVMigrationStage
p1698
V1
p1699
sVRangeSlice
p1700
V0
p1701
sVCacheCleanupExecutor
p1702
V0
p1703
sVValidationExecutor
p1704
V0
p1705
sVViewMutationStage
p1706
V32
p1707
sVMiscStage
p1708
V1
p1709
sVReadStage
p1710
V1
p1711
sa(dp1712
VMemtablePostFlush
p1713
V49
p1714
sVRequestResponseStage
p1715
V0
p1716
sVWrite
p1717
V0
p1718
sVCounterMutationStage
p1719
V0
p1720
sVSampler
p1721
V0
p1722
sVInternalResponseStage
p1723
V2460
p1724
sVMutationStage
p1725
V32
p1726
sVCompactionExecutor
p1727
V2
p1728
sVMemtableFlushWriter
p1729
V0
p1730
sVSecondaryIndexManagement
p1731
V1
p1732
sVRead
p1733
V0
p1734
sVAntiEntropyStage
p1735
V0
p1736
sVReadRepairStage
p1737
V0
p1738
sVGossipStage
p1739
V1
p1740
sVCASWrite
p1741
V0
p1742
sVPendingRangeCalculator
p1743
V0
p1744
sVNative-Transport-Requests
p1745
V0
p1746
sVHintsDispatcher
p1747
V0
p1748
sVCASRead
p1749
V0
p1750
sVMemtableReclaimMemory
p1751
V0
p1752
sVViewWrite
p1753
V0
p1754
sVMiscStage
p1755
V1
p1756
sVMigrationStage
p1757
V0
p1758
sVRangeSlice
p1759
V0
p1760
sVCacheCleanupExecutor
p1761
V0
p1762
sVValidationExecutor
p1763
V0
p1764
sVViewMutationStage
p1765
V0
p1766
sVPerDiskMemtableFlushWriter_0
p1767
V1
p1768
sVReadStage
p1769
V0
p1770
sa(dp1771
VMemtablePostFlush
p1772
V0
p1773
sVRequestResponseStage
p1774
V0
p1775
sVWrite
p1776
V0
p1777
sVSampler
p1778
V0
p1779
sVInternalResponseStage
p1780
V0
p1781
sVMutationStage
p1782
V0
p1783
sVCompactionExecutor
p1784
V6675
p1785
sVMemtableFlushWriter
p1786
V31
p1787
sVSecondaryIndexManagement
p1788
V0
p1789
sVRead
p1790
V0
p1791
sVAntiEntropyStage
p1792
V1
p1793
sVReadRepairStage
p1794
V8
p1795
sVNative-Transport-Requests
p1796
V0
p1797
sVGossipStage
p1798
V0
p1799
sVCASWrite
p1800
V0
p1801
sVPendingRangeCalculator
p1802
V1
p1803
sVCounterMutationStage
p1804
V0
p1805
sVHintsDispatcher
p1806
V2
p1807
sVCASRead
p1808
V0
p1809
sVMemtableReclaimMemory
p1810
V0
p1811
sVViewWrite
p1812
V0
p1813
sVPerDiskMemtableFlushWriter_0
p1814
V31
p1815
sVMigrationStage
p1816
V2460
p1817
sVRangeSlice
p1818
V0
p1819
sVCacheCleanupExecutor
p1820
V1
p1821
sVValidationExecutor
p1822
V0
p1823
sVViewMutationStage
p1824
V0
p1825
sVMiscStage
p1826
V0
p1827
sVReadStage
p1828
V0
p1829
sa(dp1830
VMemtablePostFlush
p1831
V0
p1832
sVRequestResponseStage
p1833
V0
p1834
sVWrite
p1835
V0
p1836
sVCounterMutationStage
p1837
V0
p1838
sVSampler
p1839
V0
p1840
sVInternalResponseStage
p1841
V8
p1842
sVMutationStage
p1843
V0
p1844
sVCompactionExecutor
p1845
V0
p1846
sVMemtableFlushWriter
p1847
V31
p1848
sVSecondaryIndexManagement
p1849
V0
p1850
sVRead
p1851
V0
p1852
sVAntiEntropyStage
p1853
V1
p1854
sVReadRepairStage
p1855
V0
p1856
sVGossipStage
p1857
V0
p1858
sVCASWrite
p1859
V0
p1860
sVPendingRangeCalculator
p1861
V1
p1862
sVNative-Transport-Requests
p1863
V0
p1864
sVHintsDispatcher
p1865
V0
p1866
sVCASRead
p1867
V0
p1868
sVMemtableReclaimMemory
p1869
V0
p1870
sVViewWrite
p1871
V0
p1872
sVMiscStage
p1873
V0
p1874
sVMigrationStage
p1875
V2460
p1876
sVRangeSlice
p1877
V0
p1878
sVCacheCleanupExecutor
p1879
V0
p1880
sVValidationExecutor
p1881
V0
p1882
sVViewMutationStage
p1883
V0
p1884
sVPerDiskMemtableFlushWriter_0
p1885
V0
p1886
sVReadStage
p1887
V32
p1888
sa(dp1889
VMemtablePostFlush
p1890
V1
p1891
sVRequestResponseStage
p1892
V0
p1893
sVWrite
p1894
V0
p1895
sVCounterMutationStage
p1896
V0
p1897
sVSampler
p1898
V1
p1899
sVInternalResponseStage
p1900
V8
p1901
sVMutationStage
p1902
V0
p1903
sVCompactionExecutor
p1904
V2
p1905
sVMemtableFlushWriter
p1906
V31
p1907
sVSecondaryIndexManagement
p1908
V0
p1909
sVRead
p1910
V0
p1911
sVAntiEntropyStage
p1912
V0
p1913
sVReadRepairStage
p1914
V8
p1915
sVGossipStage
p1916
V1
p1917
sVCASWrite
p1918
V0
p1919
sVPendingRangeCalculator
p1920
V0
p1921
sVNative-Transport-Requests
p1922
V0
p1923
sVHintsDispatcher
p1924
V0
p1925
sVCASRead
p1926
V0
p1927
sVMemtableReclaimMemory
p1928
V0
p1929
sVViewWrite
p1930
V0
p1931
sVPerDiskMemtableFlushWriter_0
p1932
V0
p1933
sVMigrationStage
p1934
V2461
p1935
sVRangeSlice
p1936
V0
p1937
sVCacheCleanupExecutor
p1938
V0
p1939
sVValidationExecutor
p1940
V2147483647
p1941
sVViewMutationStage
p1942
V0
p1943
sVMiscStage
p1944
V1
p1945
sVReadStage
p1946
V0
p1947
sa(dp1948
VMemtablePostFlush
p1949
V0
p1950
sVRequestResponseStage
p1951
V8
p1952
sVSampler
p1953
V0
p1954
sVWrite
p1955
V0
p1956
sVCounterMutationStage
p1957
V0
p1958
sVInternalResponseStage
p1959
V0
p1960
sVMutationStage
p1961
V739
p1962
sVCompactionExecutor
p1963
V6675
p1964
sVMemtableFlushWriter
p1965
V0
p1966
sVSecondaryIndexManagement
p1967
V0
p1968
sVRead
p1969
V0
p1970
sVAntiEntropyStage
p1971
V0
p1972
sVReadRepairStage
p1973
V8
p1974
sVGossipStage
p1975
V1
p1976
sVCASWrite
p1977
V0
p1978
sVPendingRangeCalculator
p1979
V0
p1980
sVNative-Transport-Requests
p1981
V128
p1982
sVHintsDispatcher
p1983
V0
p1984
sVCASRead
p1985
V0
p1986
sVMemtableReclaimMemory
p1987
V0
p1988
sVViewWrite
p1989
V0
p1990
sVMiscStage
p1991
V1
p1992
sVMigrationStage
p1993
V0
p1994
sVRangeSlice
p1995
V0
p1996
sVCacheCleanupExecutor
p1997
V0
p1998
sVValidationExecutor
p1999
V0
p2000
sVViewMutationStage
p2001
V0
p2002
sVPerDiskMemtableFlushWriter_0
p2003
V1
p2004
sVReadStage
p2005
V0
p2006
sa(dp2007
VMemtablePostFlush
p2008
V0
p2009
sVRequestResponseStage
p2010
V0
p2011
sVWrite
p2012
V0
p2013
sVSampler
p2014
V0
p2015
sVInternalResponseStage
p2016
V0
p2017
sVMutationStage
p2018
V32
p2019
sVCompactionExecutor
p2020
V6675
p2021
sVMemtableFlushWriter
p2022
V31
p2023
sVSecondaryIndexManagement
p2024
V0
p2025
sVRead
p2026
V0
p2027
sVAntiEntropyStage
p2028
V0
p2029
sVReadRepairStage
p2030
V8
p2031
sVNative-Transport-Requests
p2032
V0
p2033
sVGossipStage
p2034
V0
p2035
sVCASWrite
p2036
V0
p2037
sVPendingRangeCalculator
p2038
V0
p2039
sVCounterMutationStage
p2040
V32
p2041
sVHintsDispatcher
p2042
V0
p2043
sVCASRead
p2044
V0
p2045
sVMemtableReclaimMemory
p2046
V1
p2047
sVViewWrite
p2048
V0
p2049
sVMiscStage
p2050
V0
p2051
sVMigrationStage
p2052
V2461
p2053
sVRangeSlice
p2054
V0
p2055
sVCacheCleanupExecutor
p2056
V0
p2057
sVValidationExecutor
p2058
V0
p2059
sVViewMutationStage
p2060
V0
p2061
sVPerDiskMemtableFlushWriter_0
p2062
V0
p2063
sVReadStage
p2064
V1
p2065
sa(dp2066
VMemtablePostFlush
p2067
V1
p2068
sVRequestResponseStage
p2069
V8
p2070
sVWrite
p2071
V0
p2072
sVSampler
p2073
V0
p2074
sVInternalResponseStage
p2075
V2461
p2076
sVMutationStage
p2077
V739
p2078
sVCompactionExecutor
p2079
V6675
p2080
sVMemtableFlushWriter
p2081
V0
p2082
sVSecondaryIndexManagement
p2083
V1
p2084
sVRead
p2085
V0
p2086
sVAntiEntropyStage
p2087
V0
p2088
sVReadRepairStage
p2089
V8
p2090
sVNative-Transport-Requests
p2091
V128
p2092
sVGossipStage
p2093
V0
p2094
sVCASWrite
p2095
V0
p2096
sVPendingRangeCalculator
p2097
V1
p2098
sVCounterMutationStage
p2099
V0
p2100
sVHintsDispatcher
p2101
V0
p2102
sVCASRead
p2103
V0
p2104
sVMemtableReclaimMemory
p2105
V0
p2106
sVViewWrite
p2107
V0
p2108
sVPerDiskMemtableFlushWriter_0
p2109
V31
p2110
sVMigrationStage
p2111
V0
p2112
sVRangeSlice
p2113
V0
p2114
sVCacheCleanupExecutor
p2115
V0
p2116
sVValidationExecutor
p2117
V0
p2118
sVViewMutationStage
p2119
V0
p2120
sVMiscStage
p2121
V0
p2122
sVReadStage
p2123
V0
p2124
sa(dp2125
VMemtablePostFlush
p2126
V0
p2127
sVRequestResponseStage
p2128
V0
p2129
sVWrite
p2130
V0
p2131
sVSampler
p2132
V0
p2133
sVInternalResponseStage
p2134
V2461
p2135
sVMutationStage
p2136
V0
p2137
sVCompactionExecutor
p2138
V0
p2139
sVMemtableFlushWriter
p2140
V0
p2141
sVSecondaryIndexManagement
p2142
V0
p2143
sVRead
p2144
V0
p2145
sVAntiEntropyStage
p2146
V0
p2147
sVReadRepairStage
p2148
V0
p2149
sVNative-Transport-Requests
p2150
V0
p2151
sVGossipStage
p2152
V1
p2153
sVCASWrite
p2154
V0
p2155
sVPendingRangeCalculator
p2156
V1
p2157
sVCounterMutationStage
p2158
V0
p2159
sVHintsDispatcher
p2160
V0
p2161
sVCASRead
p2162
V0
p2163
sVMemtableReclaimMemory
p2164
V31
p2165
sVViewWrite
p2166
V0
p2167
sVMiscStage
p2168
V0
p2169
sVMigrationStage
p2170
V0
p2171
sVRangeSlice
p2172
V0
p2173
sVCacheCleanupExecutor
p2174
V0
p2175
sVValidationExecutor
p2176
V2147483647
p2177
sVViewMutationStage
p2178
V32
p2179
sVPerDiskMemtableFlushWriter_0
p2180
V0
p2181
sVReadStage
p2182
V1
p2183
sa(dp2184
VMemtablePostFlush
p2185
V49
p2186
sVRequestResponseStage
p2187
V0
p2188
sVWrite
p2189
V0
p2190
sVSampler
p2191
V0
p2192
sVInternalResponseStage
p2193
V8
p2194
sVMutationStage
p2195
V0
p2196
sVCompactionExecutor
p2197
V2
p2198
sVMemtableFlushWriter
p2199
V0
p2200
sVSecondaryIndexManagement
p2201
V1
p2202
sVRead
p2203
V0
p2204
sVAntiEntropyStage
p2205
V1
p2206
sVReadRepairStage
p2207
V0
p2208
sVNative-Transport-Requests
p2209
V0
p2210
sVGossipStage
p2211
V0
p2212
sVCASWrite
p2213
V0
p2214
sVPendingRangeCalculator
p2215
V1
p2216
sVCounterMutationStage
p2217
V0
p2218
sVHintsDispatcher
p2219
V2
p2220
sVCASRead
p2221
V0
p2222
sVMemtableReclaimMemory
p2223
V31
p2224
sVViewWrite
p2225
V0
p2226
sVPerDiskMemtableFlushWriter_0
p2227
V31
p2228
sVMigrationStage
p2229
V2462
p2230
sVRangeSlice
p2231
V0
p2232
sVCacheCleanupExecutor
p2233
V1
p2234
sVValidationExecutor
p2235
V0
p2236
sVViewMutationStage
p2237
V0
p2238
sVMiscStage
p2239
V0
p2240
sVReadStage
p2241
V1
p2242
sa(dp2243
VMemtablePostFlush
p2244
V1
p2245
sVRequestResponseStage
p2246
V0
p2247
sVWrite
p2248
V0
p2249
sVCounterMutationStage
p2250
V0
p2251
sVSampler
p2252
V0
p2253
sVInternalResponseStage
p2254
V0
p2255
sVMutationStage
p2256
V0
p2257
sVCompactionExecutor
p2258
V6675
p2259
sVMemtableFlushWriter
p2260
V1
p2261
sVSecondaryIndexManagement
p2262
V0
p2263
sVRead
p2264
V0
p2265
sVAntiEntropyStage
p2266
V1
p2267
sVReadRepairStage
p2268
V8
p2269
sVGossipStage
p2270
V0
p2271
sVCASWrite
p2272
V0
p2273
sVPendingRangeCalculator
p2274
V0
p2275
sVNative-Transport-Requests
p2276
V0
p2277
sVHintsDispatcher
p2278
V0
p2279
sVCASRead
p2280
V0
p2281
sVMemtableReclaimMemory
p2282
V0
p2283
sVViewWrite
p2284
V0
p2285
sVPerDiskMemtableFlushWriter_0
p2286
V1
p2287
sVMigrationStage
p2288
V2462
p2289
sVRangeSlice
p2290
V0
p2291
sVCacheCleanupExecutor
p2292
V0
p2293
sVValidationExecutor
p2294
V0
p2295
sVViewMutationStage
p2296
V0
p2297
sVMiscStage
p2298
V0
p2299
sVReadStage
p2300
V0
p2301
sa(dp2302
VMemtablePostFlush
p2303
V0
p2304
sVRequestResponseStage
p2305
V8
p2306
sVWrite
p2307
V0
p2308
sVSampler
p2309
V0
p2310
sVInternalResponseStage
p2311
V0
p2312
sVMutationStage
p2313
V32
p2314
sVCompactionExecutor
p2315
V2
p2316
sVMemtableFlushWriter
p2317
V31
p2318
sVSecondaryIndexManagement
p2319
V0
p2320
sVRead
p2321
V0
p2322
sVAntiEntropyStage
p2323
V0
p2324
sVReadRepairStage
p2325
V0
p2326
sVNative-Transport-Requests
p2327
V0
p2328
sVGossipStage
p2329
V0
p2330
sVCASWrite
p2331
V0
p2332
sVPendingRangeCalculator
p2333
V0
p2334
sVCounterMutationStage
p2335
V0
p2336
sVHintsDispatcher
p2337
V0
p2338
sVCASRead
p2339
V0
p2340
sVMemtableReclaimMemory
p2341
V31
p2342
sVViewWrite
p2343
V0
p2344
sVPerDiskMemtableFlushWriter_0
p2345
V1
p2346
sVMigrationStage
p2347
V0
p2348
sVRangeSlice
p2349
V0
p2350
sVCacheCleanupExecutor
p2351
V0
p2352
sVValidationExecutor
p2353
V0
p2354
sVViewMutationStage
p2355
V0
p2356
sVMiscStage
p2357
V0
p2358
sVReadStage
p2359
V0
p2360
sa(dp2361
VMemtablePostFlush
p2362
V1
p2363
sVRequestResponseStage
p2364
V0
p2365
sVWrite
p2366
V0
p2367
sVCounterMutationStage
p2368
V0
p2369
sVSampler
p2370
V0
p2371
sVInternalResponseStage
p2372
V2462
p2373
sVMutationStage
p2374
V0
p2375
sVCompactionExecutor
p2376
V6675
p2377
sVMemtableFlushWriter
p2378
V0
p2379
sVSecondaryIndexManagement
p2380
V0
p2381
sVRead
p2382
V0
p2383
sVAntiEntropyStage
p2384
V0
p2385
sVReadRepairStage
p2386
V0
p2387
sVGossipStage
p2388
V0
p2389
sVCASWrite
p2390
V0
p2391
sVPendingRangeCalculator
p2392
V1
p2393
sVNative-Transport-Requests
p2394
V0
p2395
sVHintsDispatcher
p2396
V2
p2397
sVCASRead
p2398
V0
p2399
sVMemtableReclaimMemory
p2400
V0
p2401
sVViewWrite
p2402
V0
p2403
sVPerDiskMemtableFlushWriter_0
p2404
V31
p2405
sVMigrationStage
p2406
V2462
p2407
sVRangeSlice
p2408
V0
p2409
sVCacheCleanupExecutor
p2410
V0
p2411
sVValidationExecutor
p2412
V0
p2413
sVViewMutationStage
p2414
V0
p2415
sVMiscStage
p2416
V0
p2417
sVReadStage
p2418
V0
p2419
sa(dp2420
VMemtablePostFlush
p2421
V1
p2422
sVRequestResponseStage
p2423
V0
p2424
sVWrite
p2425
V0
p2426
sVCounterMutationStage
p2427
V0
p2428
sVSampler
p2429
V1
p2430
sVInternalResponseStage
p2431
V0
p2432
sVMutationStage
p2433
V739
p2434
sVCompactionExecutor
p2435
V2
p2436
sVMemtableFlushWriter
p2437
V0
p2438
sVSecondaryIndexManagement
p2439
V1
p2440
sVRead
p2441
V0
p2442
sVAntiEntropyStage
p2443
V0
p2444
sVReadRepairStage
p2445
V0
p2446
sVGossipStage
p2447
V0
p2448
sVCASWrite
p2449
V0
p2450
sVPendingRangeCalculator
p2451
V1
p2452
sVNative-Transport-Requests
p2453
V128
p2454
sVHintsDispatcher
p2455
V2
p2456
sVCASRead
p2457
V0
p2458
sVMemtableReclaimMemory
p2459
V31
p2460
sVViewWrite
p2461
V0
p2462
sVPerDiskMemtableFlushWriter_0
p2463
V0
p2464
sVMigrationStage
p2465
V1
p2466
sVRangeSlice
p2467
V0
p2468
sVCacheCleanupExecutor
p2469
V0
p2470
sVValidationExecutor
p2471
V0
p2472
sVViewMutationStage
p2473
V0
p2474
sVMiscStage
p2475
V0
p2476
sVReadStage
p2477
V1
p2478
sa(dp2479
VMemtablePostFlush
p2480
V1
p2481
sVRequestResponseStage
p2482
V8
p2483
sVWrite
p2484
V0
p2485
sVSampler
p2486
V0
p2487
sVInternalResponseStage
p2488
V8
p2489
sVMutationStage
p2490
V32
p2491
sVCompactionExecutor
p2492
V2
p2493
sVMemtableFlushWriter
p2494
V31
p2495
sVSecondaryIndexManagement
p2496
V1
p2497
sVRead
p2498
V0
p2499
sVAntiEntropyStage
p2500
V0
p2501
sVReadRepairStage
p2502
V0
p2503
sVNative-Transport-Requests
p2504
V128
p2505
sVGossipStage
p2506
V0
p2507
sVCASWrite
p2508
V0
p2509
sVPendingRangeCalculator
p2510
V0
p2511
sVCounterMutationStage
p2512
V0
p2513
sVHintsDispatcher
p2514
V0
p2515
sVCASRead
p2516
V0
p2517
sVMemtableReclaimMemory
p2518
V31
p2519
sVViewWrite
p2520
V0
p2521
sVPerDiskMemtableFlushWriter_0
p2522
V31
p2523
sVMigrationStage
p2524
V0
p2525
sVRangeSlice
p2526
V0
p2527
sVCacheCleanupExecutor
p2528
V0
p2529
sVValidationExecutor
p2530
V0
p2531
sVViewMutationStage
p2532
V0
p2533
sVMiscStage
p2534
V1
p2535
sVReadStage
p2536
V0
p2537
sa(dp2538
VMemtablePostFlush
p2539
V1
p2540
sVRequestResponseStage
p2541
V0
p2542
sVWrite
p2543
V0
p2544
sVSampler
p2545
V0
p2546
sVInternalResponseStage
p2547
V2463
p2548
sVMutationStage
p2549
V0
p2550
sVCompactionExecutor
p2551
V0
p2552
sVMemtableFlushWriter
p2553
V31
p2554
sVSecondaryIndexManagement
p2555
V0
p2556
sVRead
p2557
V0
p2558
sVAntiEntropyStage
p2559
V0
p2560
sVReadRepairStage
p2561
V0
p2562
sVNative-Transport-Requests
p2563
V0
p2564
sVGossipStage
p2565
V0
p2566
sVCASWrite
p2567
V0
p2568
sVPendingRangeCalculator
p2569
V0
p2570
sVCounterMutationStage
p2571
V0
p2572
sVHintsDispatcher
p2573
V0
p2574
sVCASRead
p2575
V0
p2576
sVMemtableReclaimMemory
p2577
V0
p2578
sVViewWrite
p2579
V0
p2580
sVMiscStage
p2581
V1
p2582
sVMigrationStage
p2583
V0
p2584
sVRangeSlice
p2585
V0
p2586
sVCacheCleanupExecutor
p2587
V0
p2588
sVValidationExecutor
p2589
V0
p2590
sVViewMutationStage
p2591
V0
p2592
sVPerDiskMemtableFlushWriter_0
p2593
V0
p2594
sVReadStage
p2595
V0
p2596
sa(dp2597
VMemtablePostFlush
p2598
V0
p2599
sVRequestResponseStage
p2600
V0
p2601
sVWrite
p2602
V0
p2603
sVSampler
p2604
V1
p2605
sVInternalResponseStage
p2606
V8
p2607
sVMutationStage
p2608
V0
p2609
sVCompactionExecutor
p2610
V0
p2611
sVMemtableFlushWriter
p2612
V1
p2613
sVSecondaryIndexManagement
p2614
V1
p2615
sVRead
p2616
V0
p2617
sVAntiEntropyStage
p2618
V1
p2619
sVReadRepairStage
p2620
V0
p2621
sVNative-Transport-Requests
p2622
V0
p2623
sVGossipStage
p2624
V0
p2625
sVCASWrite
p2626
V0
p2627
sVPendingRangeCalculator
p2628
V0
p2629
sVCounterMutationStage
p2630
V0
p2631
sVHintsDispatcher
p2632
V0
p2633
sVCASRead
p2634
V0
p2635
sVMemtableReclaimMemory
p2636
V0
p2637
sVViewWrite
p2638
V0
p2639
sVMiscStage
p2640
V0
p2641
sVMigrationStage
p2642
V1
p2643
sVRangeSlice
p2644
V0
p2645
sVCacheCleanupExecutor
p2646
V0
p2647
sVValidationExecutor
p2648
V0
p2649
sVViewMutationStage
p2650
V0
p2651
sVPerDiskMemtableFlushWriter_0
p2652
V0
p2653
sVReadStage
p2654
V0
p2655
sa(dp2656
VMemtablePostFlush
p2657
V0
p2658
sVRequestResponseStage
p2659
V0
p2660
sVWrite
p2661
V0
p2662
sVSampler
p2663
V0
p2664
sVInternalResponseStage
p2665
V0
p2666
sVMutationStage
p2667
V32
p2668
sVCompactionExecutor
p2669
V0
p2670
sVMemtableFlushWriter
p2671
V0
p2672
sVSecondaryIndexManagement
p2673
V0
p2674
sVRead
p2675
V0
p2676
sVAntiEntropyStage
p2677
V0
p2678
sVReadRepairStage
p2679
V0
p2680
sVNative-Transport-Requests
p2681
V128
p2682
sVGossipStage
p2683
V1
p2684
sVCASWrite
p2685
V0
p2686
sVPendingRangeCalculator
p2687
V0
p2688
sVCounterMutationStage
p2689
V32
p2690
sVHintsDispatcher
p2691
V2
p2692
sVCASRead
p2693
V0
p2694
sVMemtableReclaimMemory
p2695
V0
p2696
sVViewWrite
p2697
V0
p2698
sVMiscStage
p2699
V1
p2700
sVMigrationStage
p2701
V1
p2702
sVRangeSlice
p2703
V0
p2704
sVCacheCleanupExecutor
p2705
V0
p2706
sVValidationExecutor
p2707
V0
p2708
sVViewMutationStage
p2709
V0
p2710
sVPerDiskMemtableFlushWriter_0
p2711
V1
p2712
sVReadStage
p2713
V0
p2714
sa(dp2715
VMemtablePostFlush
p2716
V0
p2717
sVRequestResponseStage
p2718
V0
p2719
sVWrite
p2720
V0
p2721
sVSampler
p2722
V1
p2723
sVInternalResponseStage
p2724
V0
p2725
sVMutationStage
p2726
V32
p2727
sVCompactionExecutor
p2728
V6708
p2729
sVMemtableFlushWriter
p2730
V31
p2731
sVSecondaryIndexManagement
p2732
V0
p2733
sVRead
p2734
V0
p2735
sVAntiEntropyStage
p2736
V0
p2737
sVReadRepairStage
p2738
V0
p2739
sVNative-Transport-Requests
p2740
V0
p2741
sVGossipStage
p2742
V1
p2743
sVCASWrite
p2744
V0
p2745
sVPendingRangeCalculator
p2746
V0
p2747
sVCounterMutationStage
p2748
V0
p2749
sVHintsDispatcher
p2750
V0
p2751
sVCASRead
p2752
V0
p2753
sVMemtableReclaimMemory
p2754
V31
p2755
sVViewWrite
p2756
V0
p2757
sVPerDiskMemtableFlushWriter_0
p2758
V0
p2759
sVMigrationStage
p2760
V2463
p2761
sVRangeSlice
p2762
V0
p2763
sVCacheCleanupExecutor
p2764
V0
p2765
sVValidationExecutor
p2766
V0
p2767
sVViewMutationStage
p2768
V0
p2769
sVMiscStage
p2770
V1
p2771
sVReadStage
p2772
V32
p2773
sa(dp2774
VMemtablePostFlush
p2775
V49
p2776
sVRequestResponseStage
p2777
V0
p2778
sVWrite
p2779
V0
p2780
sVSampler
p2781
V1
p2782
sVInternalResponseStage
p2783
V8
p2784
sVMutationStage
p2785
V739
p2786
sVCompactionExecutor
p2787
V6708
p2788
sVMemtableFlushWriter
p2789
V31
p2790
sVSecondaryIndexManagement
p2791
V0
p2792
sVRead
p2793
V0
p2794
sVAntiEntropyStage
p2795
V0
p2796
sVReadRepairStage
p2797
V0
p2798
sVNative-Transport-Requests
p2799
V0
p2800
sVGossipStage
p2801
V0
p2802
sVCASWrite
p2803
V0
p2804
sVPendingRangeCalculator
p2805
V1
p2806
sVCounterMutationStage
p2807
V0
p2808
sVHintsDispatcher
p2809
V0
p2810
sVCASRead
p2811
V0
p2812
sVMemtableReclaimMemory
p2813
V1
p2814
sVViewWrite
p2815
V0
p2816
sVPerDiskMemtableFlushWriter_0
p2817
V0
p2818
sVMigrationStage
p2819
V1
p2820
sVRangeSlice
p2821
V0
p2822
sVCacheCleanupExecutor
p2823
V0
p2824
sVValidationExecutor
p2825
V0
p2826
sVViewMutationStage
p2827
V0
p2828
sVMiscStage
p2829
V0
p2830
sVReadStage
p2831
V0
p2832
sa(dp2833
VMemtablePostFlush
p2834
V0
p2835
sVRequestResponseStage
p2836
V0
p2837
sVWrite
p2838
V0
p2839
sVSampler
p2840
V0
p2841
sVInternalResponseStage
p2842
V0
p2843
sVMutationStage
p2844
V739
p2845
sVCompactionExecutor
p2846
V0
p2847
sVMemtableFlushWriter
p2848
V0
p2849
sVSecondaryIndexManagement
p2850
V0
p2851
sVRead
p2852
V0
p2853
sVAntiEntropyStage
p2854
V0
p2855
sVReadRepairStage
p2856
V0
p2857
sVNative-Transport-Requests
p2858
V128
p2859
sVGossipStage
p2860
V0
p2861
sVCASWrite
p2862
V0
p2863
sVPendingRangeCalculator
p2864
V0
p2865
sVCounterMutationStage
p2866
V0
p2867
sVHintsDispatcher
p2868
V2
p2869
sVCASRead
p2870
V0
p2871
sVMemtableReclaimMemory
p2872
V1
p2873
sVViewWrite
p2874
V0
p2875
sVPerDiskMemtableFlushWriter_0
p2876
V1
p2877
sVMigrationStage
p2878
V1
p2879
sVRangeSlice
p2880
V0
p2881
sVCacheCleanupExecutor
p2882
V0
p2883
sVValidationExecutor
p2884
V0
p2885
sVViewMutationStage
p2886
V32
p2887
sVMiscStage
p2888
V1
p2889
sVReadStage
p2890
V0
p2891
sa(dp2892
VMemtablePostFlush
p2893
V1
p2894
sVRequestResponseStage
p2895
V0
p2896
sVSampler
p2897
V0
p2898
sVWrite
p2899
V0
p2900
sVNative-Transport-Requests
p2901
V0
p2902
sVInternalResponseStage
p2903
V0
p2904
sVMutationStage
p2905
V739
p2906
sVCompactionExecutor
p2907
V0
p2908
sVMemtableFlushWriter
p2909
V1
p2910
sVSecondaryIndexManagement
p2911
V1
p2912
sVRead
p2913
V0
p2914
sVAntiEntropyStage
p2915
V0
p2916
sVReadRepairStage
p2917
V0
p2918
sVGossipStage
p2919
V0
p2920
sVCASWrite
p2921
V0
p2922
sVPendingRangeCalculator
p2923
V1
p2924
sVCounterMutationStage
p2925
V32
p2926
sVHintsDispatcher
p2927
V0
p2928
sVCASRead
p2929
V0
p2930
sVMemtableReclaimMemory
p2931
V0
p2932
sVViewWrite
p2933
V0
p2934
sVMiscStage
p2935
V0
p2936
sVMigrationStage
p2937
V2464
p2938
sVRangeSlice
p2939
V0
p2940
sVCacheCleanupExecutor
p2941
V0
p2942
sVValidationExecutor
p2943
V2147483647
p2944
sVViewMutationStage
p2945
V32
p2946
sVPerDiskMemtableFlushWriter_0
p2947
V1
p2948
sVReadStage
p2949
V0
p2950
sa(dp2951
VMemtablePostFlush
p2952
V0
p2953
sVRequestResponseStage
p2954
V0
p2955
sVWrite
p2956
V0
p2957
sVCounterMutationStage
p2958
V0
p2959
sVSampler
p2960
V0
p2961
sVInternalResponseStage
p2962
V0
p2963
sVMutationStage
p2964
V739
p2965
sVCompactionExecutor
p2966
V0
p2967
sVMemtableFlushWriter
p2968
V0
p2969
sVSecondaryIndexManagement
p2970
V0
p2971
sVRead
p2972
V0
p2973
sVAntiEntropyStage
p2974
V0
p2975
sVReadRepairStage
p2976
V0
p2977
sVGossipStage
p2978
V0
p2979
sVCASWrite
p2980
V0
p2981
sVPendingRangeCalculator
p2982
V0
p2983
sVNative-Transport-Requests
p2984
V0
p2985
sVHintsDispatcher
p2986
V2
p2987
sVCASRead
p2988
V0
p2989
sVMemtableReclaimMemory
p2990
V0
p2991
sVViewWrite
p2992
V0
p2993
sVPerDiskMemtableFlushWriter_0
p2994
V1
p2995
sVMigrationStage
p2996
V0
p2997
sVRangeSlice
p2998
V0
p2999
sVCacheCleanupExecutor
p3000
V1
p3001
sVValidationExecutor
p3002
V0
p3003
sVViewMutationStage
p3004
V0
p3005
sVMiscStage
p3006
V0
p3007
sVReadStage
p3008
V1
p3009
sa(dp3010
VMemtablePostFlush
p3011
V1
p3012
sVRequestResponseStage
p3013
V0
p3014
sVWrite
p3015
V0
p3016
sVCounterMutationStage
p3017
V0
p3018
sVSampler
p3019
V0
p3020
sVInternalResponseStage
p3021
V0
p3022
sVMutationStage
p3023
V0
p3024
sVCompactionExecutor
p3025
V0
p3026
sVMemtableFlushWriter
p3027
V31
p3028
sVSecondaryIndexManagement
p3029
V1
p3030
sVRead
p3031
V0
p3032
sVAntiEntropyStage
p3033
V0
p3034
sVReadRepairStage
p3035
V0
p3036
sVGossipStage
p3037
V0
p3038
sVCASWrite
p3039
V0
p3040
sVPendingRangeCalculator
p3041
V1
p3042
sVNative-Transport-Requests
p3043
V0
p3044
sVHintsDispatcher
p3045
V0
p3046
sVCASRead
p3047
V0
p3048
sVMemtableReclaimMemory
p3049
V0
p3050
sVViewWrite
p3051
V0
p3052
sVMiscStage
p3053
V1
p3054
sVMigrationStage
p3055
V0
p3056
sVRangeSlice
p3057
V0
p3058
sVCacheCleanupExecutor
p3059
V1
p3060
sVValidationExecutor
p3061
V0
p3062
sVViewMutationStage
p3063
V0
p3064
sVPerDiskMemtableFlushWriter_0
p3065
V1
p3066
sVReadStage
p3067
V0
p3068
sa(dp3069
VMemtablePostFlush
p3070
V49
p3071
sVRequestResponseStage
p3072
V0
p3073
sVSampler
p3074
V0
p3075
sVWrite
p3076
V0
p3077
sVCounterMutationStage
p3078
V0
p3079
sVInternalResponseStage
p3080
V0
p3081
sVMutationStage
p3082
V0
p3083
sVCompactionExecutor
p3084
V2
p3085
sVMemtableFlushWriter
p3086
V31
p3087
sVSecondaryIndexManagement
p3088
V0
p3089
sVRead
p3090
V0
p3091
sVAntiEntropyStage
p3092
V1
p3093
sVReadRepairStage
p3094
V0
p3095
sVGossipStage
p3096
V1
p3097
sVCASWrite
p3098
V0
p3099
sVPendingRangeCalculator
p3100
V0
p3101
sVNative-Transport-Requests
p3102
V0
p3103
sVHintsDispatcher
p3104
V0
p3105
sVCASRead
p3106
V0
p3107
sVMemtableReclaimMemory
p3108
V31
p3109
sVViewWrite
p3110
V0
p3111
sVMiscStage
p3112
V0
p3113
sVMigrationStage
p3114
V0
p3115
sVRangeSlice
p3116
V0
p3117
sVCacheCleanupExecutor
p3118
V0
p3119
sVValidationExecutor
p3120
V0
p3121
sVViewMutationStage
p3122
V32
p3123
sVPerDiskMemtableFlushWriter_0
p3124
V1
p3125
sVReadStage
p3126
V1
p3127
sa(dp3128
VMemtablePostFlush
p3129
V49
p3130
sVRequestResponseStage
p3131
V0
p3132
sVWrite
p3133
V0
p3134
sVSampler
p3135
V0
p3136
sVInternalResponseStage
p3137
V0
p3138
sVMutationStage
p3139
V32
p3140
sVCompactionExecutor
p3141
V0
p3142
sVMemtableFlushWriter
p3143
V1
p3144
sVSecondaryIndexManagement
p3145
V0
p3146
sVRead
p3147
V0
p3148
sVAntiEntropyStage
p3149
V1
p3150
sVReadRepairStage
p3151
V0
p3152
sVNative-Transport-Requests
p3153
V128
p3154
sVGossipStage
p3155
V0
p3156
sVCASWrite
p3157
V0
p3158
sVPendingRangeCalculator
p3159
V1
p3160
sVCounterMutationStage
p3161
V0
p3162
sVHintsDispatcher
p3163
V0
p3164
sVCASRead
p3165
V0
p3166
sVMemtableReclaimMemory
p3167
V1
p3168
sVViewWrite
p3169
V0
p3170
sVMiscStage
p3171
V0
p3172
sVMigrationStage
p3173
V2465
p3174
sVRangeSlice
p3175
V0
p3176
sVCacheCleanupExecutor
p3177
V0
p3178
sVValidationExecutor
p3179
V0
p3180
sVViewMutationStage
p3181
V32
p3182
sVPerDiskMemtableFlushWriter_0
p3183
V1
p3184
sVReadStage
p3185
V1
p3186
sa(dp3187
VMemtablePostFlush
p3188
V0
p3189
sVRequestResponseStage
p3190
V0
p3191
sVSampler
p3192
V0
p3193
sVWrite
p3194
V0
p3195
sVCounterMutationStage
p3196
V0
p3197
sVInternalResponseStage
p3198
V0
p3199
sVMutationStage
p3200
V32
p3201
sVCompactionExecutor
p3202
V6708
p3203
sVMemtableFlushWriter
p3204
V0
p3205
sVSecondaryIndexManagement
p3206
V0
p3207
sVRead
p3208
V0
p3209
sVAntiEntropyStage
p3210
V0
p3211
sVReadRepairStage
p3212
V0
p3213
sVGossipStage
p3214
V0
p3215
sVCASWrite
p3216
V0
p3217
sVPendingRangeCalculator
p3218
V1
p3219
sVNative-Transport-Requests
p3220
V0
p3221
sVHintsDispatcher
p3222
V0
p3223
sVCASRead
p3224
V0
p3225
sVMemtableReclaimMemory
p3226
V31
p3227
sVViewWrite
p3228
V0
p3229
sVMiscStage
p3230
V0
p3231
sVMigrationStage
p3232
V0
p3233
sVRangeSlice
p3234
V0
p3235
sVCacheCleanupExecutor
p3236
V0
p3237
sVValidationExecutor
p3238
V0
p3239
sVViewMutationStage
p3240
V0
p3241
sVPerDiskMemtableFlushWriter_0
p3242
V0
p3243
sVReadStage
p3244
V1
p3245
sa(dp3246
VMemtablePostFlush
p3247
V49
p3248
sVRequestResponseStage
p3249
V0
p3250
sVWrite
p3251
V0
p3252
sVCounterMutationStage
p3253
V0
p3254
sVSampler
p3255
V0
p3256
sVInternalResponseStage
p3257
V8
p3258
sVMutationStage
p3259
V0
p3260
sVCompactionExecutor
p3261
V6708
p3262
sVMemtableFlushWriter
p3263
V0
p3264
sVSecondaryIndexManagement
p3265
V0
p3266
sVRead
p3267
V0
p3268
sVAntiEntropyStage
p3269
V0
p3270
sVReadRepairStage
p3271
V0
p3272
sVGossipStage
p3273
V1
p3274
sVCASWrite
p3275
V0
p3276
sVPendingRangeCalculator
p3277
V1
p3278
sVNative-Transport-Requests
p3279
V128
p3280
sVHintsDispatcher
p3281
V0
p3282
sVCASRead
p3283
V0
p3284
sVMemtableReclaimMemory
p3285
V31
p3286
sVViewWrite
p3287
V0
p3288
sVMiscStage
p3289
V1
p3290
sVMigrationStage
p3291
V0
p3292
sVRangeSlice
p3293
V0
p3294
sVCacheCleanupExecutor
p3295
V1
p3296
sVValidationExecutor
p3297
V0
p3298
sVViewMutationStage
p3299
V0
p3300
sVPerDiskMemtableFlushWriter_0
p3301
V31
p3302
sVReadStage
p3303
V1
p3304
sa(dp3305
VMemtablePostFlush
p3306
V1
p3307
sVRequestResponseStage
p3308
V0
p3309
sVWrite
p3310
V0
p3311
sVSampler
p3312
V0
p3313
sVInternalResponseStage
p3314
V8
p3315
sVMutationStage
p3316
V32
p3317
sVCompactionExecutor
p3318
V2
p3319
sVMemtableFlushWriter
p3320
V31
p3321
sVSecondaryIndexManagement
p3322
V0
p3323
sVRead
p3324
V0
p3325
sVAntiEntropyStage
p3326
V1
p3327
sVReadRepairStage
p3328
V0
p3329
sVNative-Transport-Requests
p3330
V0
p3331
sVGossipStage
p3332
V0
p3333
sVCASWrite
p3334
V0
p3335
sVPendingRangeCalculator
p3336
V1
p3337
sVCounterMutationStage
p3338
V0
p3339
sVHintsDispatcher
p3340
V0
p3341
sVCASRead
p3342
V0
p3343
sVMemtableReclaimMemory
p3344
V0
p3345
sVViewWrite
p3346
V0
p3347
sVPerDiskMemtableFlushWriter_0
p3348
V0
p3349
sVMigrationStage
p3350
V0
p3351
sVRangeSlice
p3352
V0
p3353
sVCacheCleanupExecutor
p3354
V0
p3355
sVValidationExecutor
p3356
V0
p3357
sVViewMutationStage
p3358
V0
p3359
sVMiscStage
p3360
V0
p3361
sVReadStage
p3362
V1
p3363
sa(dp3364
VMemtablePostFlush
p3365
V1
p3366
sVRequestResponseStage
p3367
V8
p3368
sVWrite
p3369
V0
p3370
sVSampler
p3371
V0
p3372
sVInternalResponseStage
p3373
V2466
p3374
sVMutationStage
p3375
V0
p3376
sVCompactionExecutor
p3377
V2
p3378
sVMemtableFlushWriter
p3379
V1
p3380
sVSecondaryIndexManagement
p3381
V0
p3382
sVRead
p3383
V0
p3384
sVAntiEntropyStage
p3385
V0
p3386
sVReadRepairStage
p3387
V8
p3388
sVNative-Transport-Requests
p3389
V128
p3390
sVGossipStage
p3391
V1
p3392
sVCASWrite
p3393
V0
p3394
sVPendingRangeCalculator
p3395
V1
p3396
sVCounterMutationStage
p3397
V0
p3398
sVHintsDispatcher
p3399
V0
p3400
sVCASRead
p3401
V0
p3402
sVMemtableReclaimMemory
p3403
V0
p3404
sVViewWrite
p3405
V0
p3406
sVMiscStage
p3407
V0
p3408
sVMigrationStage
p3409
V1
p3410
sVRangeSlice
p3411
V0
p3412
sVCacheCleanupExecutor
p3413
V0
p3414
sVValidationExecutor
p3415
V2147483647
p3416
sVViewMutationStage
p3417
V0
p3418
sVPerDiskMemtableFlushWriter_0
p3419
V1
p3420
sVReadStage
p3421
V0
p3422
sa(dp3423
VMemtablePostFlush
p3424
V0
p3425
sVRequestResponseStage
p3426
V0
p3427
sVWrite
p3428
V0
p3429
sVCounterMutationStage
p3430
V0
p3431
sVSampler
p3432
V0
p3433
sVInternalResponseStage
p3434
V0
p3435
sVMutationStage
p3436
V739
p3437
sVCompactionExecutor
p3438
V2
p3439
sVMemtableFlushWriter
p3440
V0
p3441
sVSecondaryIndexManagement
p3442
V0
p3443
sVRead
p3444
V0
p3445
sVAntiEntropyStage
p3446
V1
p3447
sVReadRepairStage
p3448
V8
p3449
sVGossipStage
p3450
V1
p3451
sVCASWrite
p3452
V0
p3453
sVPendingRangeCalculator
p3454
V0
p3455
sVNative-Transport-Requests
p3456
V128
p3457
sVHintsDispatcher
p3458
V2
p3459
sVCASRead
p3460
V0
p3461
sVMemtableReclaimMemory
p3462
V0
p3463
sVViewWrite
p3464
V0
p3465
sVPerDiskMemtableFlushWriter_0
p3466
V1
p3467
sVMigrationStage
p3468
V0
p3469
sVRangeSlice
p3470
V0
p3471
sVCacheCleanupExecutor
p3472
V0
p3473
sVValidationExecutor
p3474
V0
p3475
sVViewMutationStage
p3476
V0
p3477
sVMiscStage
p3478
V0
p3479
sVReadStage
p3480
V32
p3481
sa(dp3482
VMemtablePostFlush
p3483
V0
p3484
sVRequestResponseStage
p3485
V0
p3486
sVWrite
p3487
V0
p3488
sVCounterMutationStage
p3489
V32
p3490
sVSampler
p3491
V0
p3492
sVInternalResponseStage
p3493
V8
p3494
sVMutationStage
p3495
V0
p3496
sVCompactionExecutor
p3497
V6708
p3498
sVMemtableFlushWriter
p3499
V0
p3500
sVSecondaryIndexManagement
p3501
V0
p3502
sVRead
p3503
V0
p3504
sVAntiEntropyStage
p3505
V1
p3506
sVReadRepairStage
p3507
V8
p3508
sVGossipStage
p3509
V0
p3510
sVCASWrite
p3511
V0
p3512
sVPendingRangeCalculator
p3513
V1
p3514
sVNative-Transport-Requests
p3515
V0
p3516
sVHintsDispatcher
p3517
V0
p3518
sVCASRead
p3519
V0
p3520
sVMemtableReclaimMemory
p3521
V0
p3522
sVViewWrite
p3523
V0
p3524
sVPerDiskMemtableFlushWriter_0
p3525
V31
p3526
sVMigrationStage
p3527
V2466
p3528
sVRangeSlice
p3529
V0
p3530
sVCacheCleanupExecutor
p3531
V0
p3532
sVValidationExecutor
p3533
V2147483647
p3534
sVViewMutationStage
p3535
V0
p3536
sVMiscStage
p3537
V1
p3538
sVReadStage
p3539
V0
p3540
sa(dp3541
VMemtablePostFlush
p3542
V0
p3543
sVRequestResponseStage
p3544
V0
p3545
sVSampler
p3546
V0
p3547
sVWrite
p3548
V0
p3549
sVCounterMutationStage
p3550
V32
p3551
sVInternalResponseStage
p3552
V2466
p3553
sVMutationStage
p3554
V739
p3555
sVCompactionExecutor
p3556
V6708
p3557
sVMemtableFlushWriter
p3558
V31
p3559
sVSecondaryIndexManagement
p3560
V0
p3561
sVRead
p3562
V0
p3563
sVAntiEntropyStage
p3564
V0
p3565
sVReadRepairStage
p3566
V8
p3567
sVGossipStage
p3568
V0
p3569
sVCASWrite
p3570
V0
p3571
sVPendingRangeCalculator
p3572
V0
p3573
sVNative-Transport-Requests
p3574
V0
p3575
sVHintsDispatcher
p3576
V0
p3577
sVCASRead
p3578
V0
p3579
sVMemtableReclaimMemory
p3580
V0
p3581
sVViewWrite
p3582
V0
p3583
sVPerDiskMemtableFlushWriter_0
p3584
V0
p3585
sVMigrationStage
p3586
V1
p3587
sVRangeSlice
p3588
V0
p3589
sVCacheCleanupExecutor
p3590
V0
p3591
sVValidationExecutor
p3592
V2147483647
p3593
sVViewMutationStage
p3594
V0
p3595
sVMiscStage
p3596
V0
p3597
sVReadStage
p3598
V32
p3599
sa(dp3600
VMemtablePostFlush
p3601
V0
p3602
sVRequestResponseStage
p3603
V0
p3604
sVWrite
p3605
V0
p3606
sVSampler
p3607
V0
p3608
sVInternalResponseStage
p3609
V0
p3610
sVMutationStage
p3611
V739
p3612
sVCompactionExecutor
p3613
V6708
p3614
sVMemtableFlushWriter
p3615
V31
p3616
sVSecondaryIndexManagement
p3617
V1
p3618
sVRead
p3619
V0
p3620
sVAntiEntropyStage
p3621
V0
p3622
sVReadRepairStage
p3623
V0
p3624
sVNative-Transport-Requests
p3625
V0
p3626
sVGossipStage
p3627
V0
p3628
sVCASWrite
p3629
V0
p3630
sVPendingRangeCalculator
p3631
V0
p3632
sVCounterMutationStage
p3633
V0
p3634
sVHintsDispatcher
p3635
V0
p3636
sVCASRead
p3637
V0
p3638
sVMemtableReclaimMemory
p3639
V31
p3640
sVViewWrite
p3641
V0
p3642
sVMiscStage
p3643
V0
p3644
sVMigrationStage
p3645
V1
p3646
sVRangeSlice
p3647
V0
p3648
sVCacheCleanupExecutor
p3649
V0
p3650
sVValidationExecutor
p3651
V2147483647
p3652
sVViewMutationStage
p3653
V0
p3654
sVPerDiskMemtableFlushWriter_0
p3655
V31
p3656
sVReadStage
p3657
V0
p3658
sa(dp3659
VMemtablePostFlush
p3660
V1
p3661
sVRequestResponseStage
p3662
V8
p3663
sVSampler
p3664
V1
p3665
sVWrite
p3666
V0
p3667
sVCounterMutationStage
p3668
V0
p3669
sVInternalResponseStage
p3670
V2467
p3671
sVMutationStage
p3672
V32
p3673
sVCompactionExecutor
p3674
V2
p3675
sVMemtableFlushWriter
p3676
V0
p3677
sVSecondaryIndexManagement
p3678
V0
p3679
sVRead
p3680
V0
p3681
sVAntiEntropyStage
p3682
V1
p3683
sVReadRepairStage
p3684
V0
p3685
sVGossipStage
p3686
V0
p3687
sVCASWrite
p3688
V0
p3689
sVPendingRangeCalculator
p3690
V0
p3691
sVNative-Transport-Requests
p3692
V128
p3693
sVHintsDispatcher
p3694
V0
p3695
sVCASRead
p3696
V0
p3697
sVMemtableReclaimMemory
p3698
V0
p3699
sVViewWrite
p3700
V0
p3701
sVPerDiskMemtableFlushWriter_0
p3702
V1
p3703
sVMigrationStage
p3704
V2467
p3705
sVRangeSlice
p3706
V0
p3707
sVCacheCleanupExecutor
p3708
V0
p3709
sVValidationExecutor
p3710
V2147483647
p3711
sVViewMutationStage
p3712
V32
p3713
sVMiscStage
p3714
V0
p3715
sVReadStage
p3716
V32
p3717
sa(dp3718
VMemtablePostFlush
p3719
V0
p3720
sVRequestResponseStage
p3721
V0
p3722
sVWrite
p3723
V0
p3724
sVSampler
p3725
V0
p3726
sVInternalResponseStage
p3727
V8
p3728
sVMutationStage
p3729
V0
p3730
sVCompactionExecutor
p3731
V6708
p3732
sVMemtableFlushWriter
p3733
V0
p3734
sVSecondaryIndexManagement
p3735
V0
p3736
sVRead
p3737
V0
p3738
sVAntiEntropyStage
p3739
V1
p3740
sVReadRepairStage
p3741
V0
p3742
sVNative-Transport-Requests
p3743
V0
p3744
sVGossipStage
p3745
V0
p3746
sVCASWrite
p3747
V0
p3748
sVPendingRangeCalculator
p3749
V1
p3750
sVCounterMutationStage
p3751
V0
p3752
sVHintsDispatcher
p3753
V0
p3754
sVCASRead
p3755
V0
p3756
sVMemtableReclaimMemory
p3757
V0
p3758
sVViewWrite
p3759
V0
p3760
sVMiscStage
p3761
V1
p3762
sVMigrationStage
p3763
V2467
p3764
sVRangeSlice
p3765
V0
p3766
sVCacheCleanupExecutor
p3767
V1
p3768
sVValidationExecutor
p3769
V0
p3770
sVViewMutationStage
p3771
V0
p3772
sVPerDiskMemtableFlushWriter_0
p3773
V0
p3774
sVReadStage
p3775
V32
p3776
sa(dp3777
VMemtablePostFlush
p3778
V49
p3779
sVRequestResponseStage
p3780
V8
p3781
sVWrite
p3782
V0
p3783
sVSampler
p3784
V0
p3785
sVInternalResponseStage
p3786
V0
p3787
sVMutationStage
p3788
V32
p3789
sVCompactionExecutor
p3790
V6708
p3791
sVMemtableFlushWriter
p3792
V31
p3793
sVSecondaryIndexManagement
p3794
V0
p3795
sVRead
p3796
V0
p3797
sVAntiEntropyStage
p3798
V0
p3799
sVReadRepairStage
p3800
V8
p3801
sVNative-Transport-Requests
p3802
V0
p3803
sVGossipStage
p3804
V0
p3805
sVCASWrite
p3806
V0
p3807
sVPendingRangeCalculator
p3808
V0
p3809
sVCounterMutationStage
p3810
V0
p3811
sVHintsDispatcher
p3812
V2
p3813
sVCASRead
p3814
V0
p3815
sVMemtableReclaimMemory
p3816
V0
p3817
sVViewWrite
p3818
V0
p3819
sVMiscStage
p3820
V1
p3821
sVMigrationStage
p3822
V1
p3823
sVRangeSlice
p3824
V0
p3825
sVCacheCleanupExecutor
p3826
V0
p3827
sVValidationExecutor
p3828
V0
p3829
sVViewMutationStage
p3830
V32
p3831
sVPerDiskMemtableFlushWriter_0
p3832
V31
p3833
sVReadStage
p3834
V0
p3835
sa(dp3836
VMemtablePostFlush
p3837
V1
p3838
sVRequestResponseStage
p3839
V0
p3840
sVWrite
p3841
V0
p3842
sVCounterMutationStage
p3843
V32
p3844
sVSampler
p3845
V0
p3846
sVInternalResponseStage
p3847
V0
p3848
sVMutationStage
p3849
V0
p3850
sVCompactionExecutor
p3851
V0
p3852
sVMemtableFlushWriter
p3853
V31
p3854
sVSecondaryIndexManagement
p3855
V0
p3856
sVRead
p3857
V0
p3858
sVAntiEntropyStage
p3859
V0
p3860
sVReadRepairStage
p3861
V0
p3862
sVGossipStage
p3863
V0
p3864
sVCASWrite
p3865
V0
p3866
sVPendingRangeCalculator
p3867
V1
p3868
sVNative-Transport-Requests
p3869
V0
p3870
sVHintsDispatcher
p3871
V2
p3872
sVCASRead
p3873
V0
p3874
sVMemtableReclaimMemory
p3875
V31
p3876
sVViewWrite
p3877
V0
p3878
sVMiscStage
p3879
V0
p3880
sVMigrationStage
p3881
V1
p3882
sVRangeSlice
p3883
V0
p3884
sVCacheCleanupExecutor
p3885
V0
p3886
sVValidationExecutor
p3887
V2147483647
p3888
sVViewMutationStage
p3889
V0
p3890
sVPerDiskMemtableFlushWriter_0
p3891
V0
p3892
sVReadStage
p3893
V0
p3894
sa(dp3895
VMemtablePostFlush
p3896
V0
p3897
sVRequestResponseStage
p3898
V0
p3899
sVWrite
p3900
V0
p3901
sVCounterMutationStage
p3902
V32
p3903
sVSampler
p3904
V1
p3905
sVInternalResponseStage
p3906
V0
p3907
sVMutationStage
p3908
V739
p3909
sVCompactionExecutor
p3910
V6708
p3911
sVMemtableFlushWriter
p3912
V1
p3913
sVSecondaryIndexManagement
p3914
V0
p3915
sVRead
p3916
V0
p3917
sVAntiEntropyStage
p3918
V0
p3919
sVReadRepairStage
p3920
V0
p3921
sVGossipStage
p3922
V0
p3923
sVCASWrite
p3924
V0
p3925
sVPendingRangeCalculator
p3926
V0
p3927
sVNative-Transport-Requests
p3928
V128
p3929
sVHintsDispatcher
p3930
V0
p3931
sVCASRead
p3932
V0
p3933
sVMemtableReclaimMemory
p3934
V31
p3935
sVViewWrite
p3936
V0
p3937
sVPerDiskMemtableFlushWriter_0
p3938
V31
p3939
sVMigrationStage
p3940
V1
p3941
sVRangeSlice
p3942
V0
p3943
sVCacheCleanupExecutor
p3944
V1
p3945
sVValidationExecutor
p3946
V0
p3947
sVViewMutationStage
p3948
V0
p3949
sVMiscStage
p3950
V0
p3951
sVReadStage
p3952
V1
p3953
sa(dp3954
VMemtablePostFlush
p3955
V0
p3956
sVRequestResponseStage
p3957
V8
p3958
sVWrite
p3959
V0
p3960
sVCounterMutationStage
p3961
V0
p3962
sVSampler
p3963
V1
p3964
sVInternalResponseStage
p3965
V0
p3966
sVMutationStage
p3967
V32
p3968
sVCompactionExecutor
p3969
V2
p3970
sVMemtableFlushWriter
p3971
V31
p3972
sVSecondaryIndexManagement
p3973
V0
p3974
sVRead
p3975
V0
p3976
sVAntiEntropyStage
p3977
V0
p3978
sVReadRepairStage
p3979
V0
p3980
sVGossipStage
p3981
V0
p3982
sVCASWrite
p3983
V0
p3984
sVPendingRangeCalculator
p3985
V1
p3986
sVNative-Transport-Requests
p3987
V0
p3988
sVHintsDispatcher
p3989
V0
p3990
sVCASRead
p3991
V0
p3992
sVMemtableReclaimMemory
p3993
V1
p3994
sVViewWrite
p3995
V0
p3996
sVMiscStage
p3997
V0
p3998
sVMigrationStage
p3999
V2468
p4000
sVRangeSlice
p4001
V0
p4002
sVCacheCleanupExecutor
p4003
V0
p4004
sVValidationExecutor
p4005
V0
p4006
sVViewMutationStage
p4007
V32
p4008
sVPerDiskMemtableFlushWriter_0
p4009
V31
p4010
sVReadStage
p4011
V0
p4012
sa(dp4013
VMemtablePostFlush
p4014
V0
p4015
sVRequestResponseStage
p4016
V0
p4017
sVWrite
p4018
V0
p4019
sVSampler
p4020
V0
p4021
sVInternalResponseStage
p4022
V0
p4023
sVMutationStage
p4024
V739
p4025
sVCompactionExecutor
p4026
V2
p4027
sVMemtableFlushWriter
p4028
V0
p4029
sVSecondaryIndexManagement
p4030
V0
p4031
sVRead
p4032
V0
p4033
sVAntiEntropyStage
p4034
V0
p4035
sVReadRepairStage
p4036
V0
p4037
sVNative-Transport-Requests
p4038
V128
p4039
sVGossipStage
p4040
V0
p4041
sVCASWrite
p4042
V0
p4043
sVPendingRangeCalculator
p4044
V1
p4045
sVCounterMutationStage
p4046
V0
p4047
sVHintsDispatcher
p4048
V0
p4049
sVCASRead
p4050
V0
p4051
sVMemtableReclaimMemory
p4052
V0
p4053
sVViewWrite
p4054
V0
p4055
sVMiscStage
p4056
V0
p4057
sVMigrationStage
p4058
V1
p4059
sVRangeSlice
p4060
V0
p4061
sVCacheCleanupExecutor
p4062
V0
p4063
sVValidationExecutor
p4064
V2147483647
p4065
sVViewMutationStage
p4066
V0
p4067
sVPerDiskMemtableFlushWriter_0
p4068
V31
p4069
sVReadStage
p4070
V32
p4071
sa(dp4072
VMemtablePostFlush
p4073
V1
p4074
sVRequestResponseStage
p4075
V8
p4076
sVWrite
p4077
V0
p4078
sVCounterMutationStage
p4079
V0
p4080
sVSampler
p4081
V1
p4082
sVInternalResponseStage
p4083
V8
p4084
sVMutationStage
p4085
V32
p4086
sVCompactionExecutor
p4087
V0
p4088
sVMemtableFlushWriter
p4089
V31
p4090
sVSecondaryIndexManagement
p4091
V0
p4092
sVRead
p4093
V0
p4094
sVAntiEntropyStage
p4095
V0
p4096
sVReadRepairStage
p4097
V0
p4098
sVGossipStage
p4099
V0
p4100
sVCASWrite
p4101
V0
p4102
sVPendingRangeCalculator
p4103
V0
p4104
sVNative-Transport-Requests
p4105
V0
p4106
sVHintsDispatcher
p4107
V0
p4108
sVCASRead
p4109
V0
p4110
sVMemtableReclaimMemory
p4111
V0
p4112
sVViewWrite
p4113
V0
p4114
sVPerDiskMemtableFlushWriter_0
p4115
V31
p4116
sVMigrationStage
p4117
V2468
p4118
sVRangeSlice
p4119
V0
p4120
sVCacheCleanupExecutor
p4121
V0
p4122
sVValidationExecutor
p4123
V2147483647
p4124
sVViewMutationStage
p4125
V0
p4126
sVMiscStage
p4127
V1
p4128
sVReadStage
p4129
V0
p4130
sa(dp4131
VMemtablePostFlush
p4132
V0
p4133
sVRequestResponseStage
p4134
V0
p4135
sVWrite
p4136
V0
p4137
sVSampler
p4138
V1
p4139
sVInternalResponseStage
p4140
V2468
p4141
sVMutationStage
p4142
V32
p4143
sVCompactionExecutor
p4144
V6708
p4145
sVMemtableFlushWriter
p4146
V0
p4147
sVSecondaryIndexManagement
p4148
V0
p4149
sVRead
p4150
V0
p4151
sVAntiEntropyStage
p4152
V1
p4153
sVReadRepairStage
p4154
V0
p4155
sVNative-Transport-Requests
p4156
V0
p4157
sVGossipStage
p4158
V0
p4159
sVCASWrite
p4160
V0
p4161
sVPendingRangeCalculator
p4162
V0
p4163
sVCounterMutationStage
p4164
V32
p4165
sVHintsDispatcher
p4166
V0
p4167
sVCASRead
p4168
V0
p4169
sVMemtableReclaimMemory
p4170
V31
p4171
sVViewWrite
p4172
V0
p4173
sVPerDiskMemtableFlushWriter_0
p4174
V1
p4175
sVMigrationStage
p4176
V0
p4177
sVRangeSlice
p4178
V0
p4179
sVCacheCleanupExecutor
p4180
V0
p4181
sVValidationExecutor
p4182
V0
p4183
sVViewMutationStage
p4184
V0
p4185
sVMiscStage
p4186
V1
p4187
sVReadStage
p4188
V0
p4189
sa(dp4190
VMemtablePostFlush
p4191
V0
p4192
sVRequestResponseStage
p4193
V0
p4194
sVSampler
p4195
V0
p4196
sVWrite
p4197
V0
p4198
sVCounterMutationStage
p4199
V0
p4200
sVInternalResponseStage
p4201
V2468
p4202
sVMutationStage
p4203
V32
p4204
sVCompactionExecutor
p4205
V2
p4206
sVMemtableFlushWriter
p4207
V1
p4208
sVSecondaryIndexManagement
p4209
V0
p4210
sVRead
p4211
V0
p4212
sVAntiEntropyStage
p4213
V0
p4214
sVReadRepairStage
p4215
V8
p4216
sVGossipStage
p4217
V0
p4218
sVCASWrite
p4219
V0
p4220
sVPendingRangeCalculator
p4221
V0
p4222
sVNative-Transport-Requests
p4223
V0
p4224
sVHintsDispatcher
p4225
V0
p4226
sVCASRead
p4227
V0
p4228
sVMemtableReclaimMemory
p4229
V0
p4230
sVViewWrite
p4231
V0
p4232
sVMiscStage
p4233
V0
p4234
sVMigrationStage
p4235
V0
p4236
sVRangeSlice
p4237
V0
p4238
sVCacheCleanupExecutor
p4239
V0
p4240
sVValidationExecutor
p4241
V0
p4242
sVViewMutationStage
p4243
V0
p4244
sVPerDiskMemtableFlushWriter_0
p4245
V31
p4246
sVReadStage
p4247
V0
p4248
sa(dp4249
VMemtablePostFlush
p4250
V0
p4251
sVRequestResponseStage
p4252
V8
p4253
sVWrite
p4254
V0
p4255
sVCounterMutationStage
p4256
V0
p4257
sVSampler
p4258
V0
p4259
sVInternalResponseStage
p4260
V0
p4261
sVMutationStage
p4262
V739
p4263
sVCompactionExecutor
p4264
V0
p4265
sVMemtableFlushWriter
p4266
V0
p4267
sVSecondaryIndexManagement
p4268
V0
p4269
sVRead
p4270
V0
p4271
sVAntiEntropyStage
p4272
V0
p4273
sVReadRepairStage
p4274
V0
p4275
sVGossipStage
p4276
V0
p4277
sVCASWrite
p4278
V0
p4279
sVPendingRangeCalculator
p4280
V1
p4281
sVNative-Transport-Requests
p4282
V128
p4283
sVHintsDispatcher
p4284
V2
p4285
sVCASRead
p4286
V0
p4287
sVMemtableReclaimMemory
p4288
V31
p4289
sVViewWrite
p4290
V0
p4291
sVPerDiskMemtableFlushWriter_0
p4292
V0
p4293
sVMigrationStage
p4294
V0
p4295
sVRangeSlice
p4296
V0
p4297
sVCacheCleanupExecutor
p4298
V0
p4299
sVValidationExecutor
p4300
V2147483647
p4301
sVViewMutationStage
p4302
V0
p4303
sVMiscStage
p4304
V1
p4305
sVReadStage
p4306
V1
p4307
sa(dp4308
VMemtablePostFlush
p4309
V0
p4310
sVRequestResponseStage
p4311
V0
p4312
sVSampler
p4313
V0
p4314
sVWrite
p4315
V0
p4316
sVNative-Transport-Requests
p4317
V0
p4318
sVInternalResponseStage
p4319
V8
p4320
sVMutationStage
p4321
V0
p4322
sVCompactionExecutor
p4323
V0
p4324
sVMemtableFlushWriter
p4325
V0
p4326
sVSecondaryIndexManagement
p4327
V0
p4328
sVRead
p4329
V0
p4330
sVAntiEntropyStage
p4331
V1
p4332
sVReadRepairStage
p4333
V0
p4334
sVGossipStage
p4335
V0
p4336
sVCASWrite
p4337
V0
p4338
sVPendingRangeCalculator
p4339
V1
p4340
sVCounterMutationStage
p4341
V0
p4342
sVHintsDispatcher
p4343
V0
p4344
sVCASRead
p4345
V0
p4346
sVMemtableReclaimMemory
p4347
V31
p4348
sVViewWrite
p4349
V0
p4350
sVMiscStage
p4351
V0
p4352
sVMigrationStage
p4353
V2469
p4354
sVRangeSlice
p4355
V0
p4356
sVCacheCleanupExecutor
p4357
V0
p4358
sVValidationExecutor
p4359
V0
p4360
sVViewMutationStage
p4361
V0
p4362
sVPerDiskMemtableFlushWriter_0
p4363
V31
p4364
sVReadStage
p4365
V0
p4366
sa(dp4367
VMemtablePostFlush
p4368
V0
p4369
sVRequestResponseStage
p4370
V0
p4371
sVWrite
p4372
V0
p4373
sVCounterMutationStage
p4374
V0
p4375
sVSampler
p4376
V1
p4377
sVInternalResponseStage
p4378
V8
p4379
sVMutationStage
p4380
V0
p4381
sVCompactionExecutor
p4382
V0
p4383
sVMemtableFlushWriter
p4384
V1
p4385
sVSecondaryIndexManagement
p4386
V0
p4387
sVRead
p4388
V0
p4389
sVAntiEntropyStage
p4390
V0
p4391
sVReadRepairStage
p4392
V0
p4393
sVGossipStage
p4394
V0
p4395
sVCASWrite
p4396
V0
p4397
sVPendingRangeCalculator
p4398
V1
p4399
sVNative-Transport-Requests
p4400
V0
p4401
sVHintsDispatcher
p4402
V2
p4403
sVCASRead
p4404
V0
p4405
sVMemtableReclaimMemory
p4406
V1
p4407
sVViewWrite
p4408
V0
p4409
sVPerDiskMemtableFlushWriter_0
p4410
V1
p4411
sVMigrationStage
p4412
V0
p4413
sVRangeSlice
p4414
V0
p4415
sVCacheCleanupExecutor
p4416
V0
p4417
sVValidationExecutor
p4418
V0
p4419
sVViewMutationStage
p4420
V32
p4421
sVMiscStage
p4422
V0
p4423
sVReadStage
p4424
V0
p4425
sa(dp4426
VMemtablePostFlush
p4427
V1
p4428
sVRequestResponseStage
p4429
V0
p4430
sVWrite
p4431
V0
p4432
sVCounterMutationStage
p4433
V32
p4434
sVSampler
p4435
V0
p4436
sVInternalResponseStage
p4437
V0
p4438
sVMutationStage
p4439
V0
p4440
sVCompactionExecutor
p4441
V6708
p4442
sVMemtableFlushWriter
p4443
V0
p4444
sVSecondaryIndexManagement
p4445
V0
p4446
sVRead
p4447
V0
p4448
sVAntiEntropyStage
p4449
V0
p4450
sVReadRepairStage
p4451
V0
p4452
sVGossipStage
p4453
V1
p4454
sVCASWrite
p4455
V0
p4456
sVPendingRangeCalculator
p4457
V0
p4458
sVNative-Transport-Requests
p4459
V0
p4460
sVHintsDispatcher
p4461
V0
p4462
sVCASRead
p4463
V0
p4464
sVMemtableReclaimMemory
p4465
V1
p4466
sVViewWrite
p4467
V0
p4468
sVMiscStage
p4469
V0
p4470
sVMigrationStage
p4471
V2469
p4472
sVRangeSlice
p4473
V0
p4474
sVCacheCleanupExecutor
p4475
V0
p4476
sVValidationExecutor
p4477
V0
p4478
sVViewMutationStage
p4479
V0
p4480
sVPerDiskMemtableFlushWriter_0
p4481
V0
p4482
sVReadStage
p4483
V32
p4484
sa(dp4485
VMemtablePostFlush
p4486
V1
p4487
sVRequestResponseStage
p4488
V8
p4489
sVWrite
p4490
V0
p4491
sVCounterMutationStage
p4492
V32
p4493
sVSampler
p4494
V1
p4495
sVInternalResponseStage
p4496
V8
p4497
sVMutationStage
p4498
V0
p4499
sVCompactionExecutor
p4500
V0
p4501
sVMemtableFlushWriter
p4502
V31
p4503
sVSecondaryIndexManagement
p4504
V1
p4505
sVRead
p4506
V0
p4507
sVAntiEntropyStage
p4508
V0
p4509
sVReadRepairStage
p4510
V0
p4511
sVGossipStage
p4512
V0
p4513
sVCASWrite
p4514
V0
p4515
sVPendingRangeCalculator
p4516
V0
p4517
sVNative-Transport-Requests
p4518
V0
p4519
sVHintsDispatcher
p4520
V2
p4521
sVCASRead
p4522
V0
p4523
sVMemtableReclaimMemory
p4524
V1
p4525
sVViewWrite
p4526
V0
p4527
sVMiscStage
p4528
V1
p4529
sVMigrationStage
p4530
V0
p4531
sVRangeSlice
p4532
V0
p4533
sVCacheCleanupExecutor
p4534
V1
p4535
sVValidationExecutor
p4536
V0
p4537
sVViewMutationStage
p4538
V32
p4539
sVPerDiskMemtableFlushWriter_0
p4540
V0
p4541
sVReadStage
p4542
V1
p4543
sa(dp4544
VMemtablePostFlush
p4545
V1
p4546
sVRequestResponseStage
p4547
V0
p4548
sVWrite
p4549
V0
p4550
sVSampler
p4551
V1
p4552
sVInternalResponseStage
p4553
V8
p4554
sVMutationStage
p4555
V32
p4556
sVCompactionExecutor
p4557
V2
p4558
sVMemtableFlushWriter
p4559
V1
p4560
sVSecondaryIndexManagement
p4561
V1
p4562
sVRead
p4563
V0
p4564
sVAntiEntropyStage
p4565
V1
p4566
sVReadRepairStage
p4567
V0
p4568
sVNative-Transport-Requests
p4569
V128
p4570
sVGossipStage
p4571
V0
p4572
sVCASWrite
p4573
V0
p4574
sVPendingRangeCalculator
p4575
V1
p4576
sVCounterMutationStage
p4577
V32
p4578
sVHintsDispatcher
p4579
V0
p4580
sVCASRead
p4581
V0
p4582
sVMemtableReclaimMemory
p4583
V31
p4584
sVViewWrite
p4585
V0
p4586
sVMiscStage
p4587
V0
p4588
sVMigrationStage
p4589
V0
p4590
sVRangeSlice
p4591
V0
p4592
sVCacheCleanupExecutor
p4593
V0
p4594
sVValidationExecutor
p4595
V2147483647
p4596
sVViewMutationStage
p4597
V0
p4598
sVPerDiskMemtableFlushWriter_0
p4599
V1
p4600
sVReadStage
p4601
V1
p4602
sa(dp4603
VMemtablePostFlush
p4604
V49
p4605
sVRequestResponseStage
p4606
V0
p4607
sVWrite
p4608
V0
p4609
sVSampler
p4610
V0
p4611
sVInternalResponseStage
p4612
V8
p4613
sVMutationStage
p4614
V0
p4615
sVCompactionExecutor
p4616
V0
p4617
sVMemtableFlushWriter
p4618
V0
p4619
sVSecondaryIndexManagement
p4620
V0
p4621
sVRead
p4622
V0
p4623
sVAntiEntropyStage
p4624
V0
p4625
sVReadRepairStage
p4626
V0
p4627
sVNative-Transport-Requests
p4628
V128
p4629
sVGossipStage
p4630
V0
p4631
sVCASWrite
p4632
V0
p4633
sVPendingRangeCalculator
p4634
V1
p4635
sVCounterMutationStage
p4636
V0
p4637
sVHintsDispatcher
p4638
V0
p4639
sVCASRead
p4640
V0
p4641
sVMemtableReclaimMemory
p4642
V1
p4643
sVViewWrite
p4644
V0
p4645
sVMiscStage
p4646
V0
p4647
sVMigrationStage
p4648
V1
p4649
sVRangeSlice
p4650
V0
p4651
sVCacheCleanupExecutor
p4652
V0
p4653
sVValidationExecutor
p4654
V0
p4655
sVViewMutationStage
p4656
V0
p4657
sVPerDiskMemtableFlushWriter_0
p4658
V0
p4659
sVReadStage
p4660
V1
p4661
sa(dp4662
VMemtablePostFlush
p4663
V0
p4664
sVRequestResponseStage
p4665
V0
p4666
sVSampler
p4667
V1
p4668
sVWrite
p4669
V0
p4670
sVNative-Transport-Requests
p4671
V128
p4672
sVInternalResponseStage
p4673
V0
p4674
sVMutationStage
p4675
V32
p4676
sVCompactionExecutor
p4677
V0
p4678
sVMemtableFlushWriter
p4679
V0
p4680
sVSecondaryIndexManagement
p4681
V0
p4682
sVRead
p4683
V0
p4684
sVAntiEntropyStage
p4685
V1
p4686
sVReadRepairStage
p4687
V0
p4688
sVGossipStage
p4689
V0
p4690
sVCASWrite
p4691
V0
p4692
sVPendingRangeCalculator
p4693
V1
p4694
sVCounterMutationStage
p4695
V0
p4696
sVHintsDispatcher
p4697
V0
p4698
sVCASRead
p4699
V0
p4700
sVMemtableReclaimMemory
p4701
V0
p4702
sVViewWrite
p4703
V0
p4704
sVMiscStage
p4705
V0
p4706
sVMigrationStage
p4707
V2470
p4708
sVRangeSlice
p4709
V0
p4710
sVCacheCleanupExecutor
p4711
V0
p4712
sVValidationExecutor
p4713
V2147483647
p4714
sVViewMutationStage
p4715
V0
p4716
sVPerDiskMemtableFlushWriter_0
p4717
V0
p4718
sVReadStage
p4719
V0
p4720
sa(dp4721
VMemtablePostFlush
p4722
V49
p4723
sVRequestResponseStage
p4724
V0
p4725
sVWrite
p4726
V0
p4727
sVCounterMutationStage
p4728
V0
p4729
sVSampler
p4730
V0
p4731
sVInternalResponseStage
p4732
V0
p4733
sVMutationStage
p4734
V0
p4735
sVCompactionExecutor
p4736
V0
p4737
sVMemtableFlushWriter
p4738
V0
p4739
sVSecondaryIndexManagement
p4740
V1
p4741
sVRead
p4742
V0
p4743
sVAntiEntropyStage
p4744
V0
p4745
sVReadRepairStage
p4746
V0
p4747
sVGossipStage
p4748
V0
p4749
sVCASWrite
p4750
V0
p4751
sVPendingRangeCalculator
p4752
V1
p4753
sVNative-Transport-Requests
p4754
V0
p4755
sVHintsDispatcher
p4756
V0
p4757
sVCASRead
p4758
V0
p4759
sVMemtableReclaimMemory
p4760
V0
p4761
sVViewWrite
p4762
V0
p4763
sVMiscStage
p4764
V0
p4765
sVMigrationStage
p4766
V0
p4767
sVRangeSlice
p4768
V0
p4769
sVCacheCleanupExecutor
p4770
V0
p4771
sVValidationExecutor
p4772
V0
p4773
sVViewMutationStage
p4774
V0
p4775
sVPerDiskMemtableFlushWriter_0
p4776
V0
p4777
sVReadStage
p4778
V0
p4779
sa(dp4780
VMemtablePostFlush
p4781
V1
p4782
sVRequestResponseStage
p4783
V0
p4784
sVWrite
p4785
V0
p4786
sVSampler
p4787
V0
p4788
sVInternalResponseStage
p4789
V2470
p4790
sVMutationStage
p4791
V32
p4792
sVCompactionExecutor
p4793
V2
p4794
sVMemtableFlushWriter
p4795
V0
p4796
sVSecondaryIndexManagement
p4797
V1
p4798
sVRead
p4799
V0
p4800
sVAntiEntropyStage
p4801
V1
p4802
sVReadRepairStage
p4803
V0
p4804
sVNative-Transport-Requests
p4805
V0
p4806
sVGossipStage
p4807
V0
p4808
sVCASWrite
p4809
V0
p4810
sVPendingRangeCalculator
p4811
V0
p4812
sVCounterMutationStage
p4813
V0
p4814
sVHintsDispatcher
p4815
V0
p4816
sVCASRead
p4817
V0
p4818
sVMemtableReclaimMemory
p4819
V0
p4820
sVViewWrite
p4821
V0
p4822
sVMiscStage
p4823
V1
p4824
sVMigrationStage
p4825
V0
p4826
sVRangeSlice
p4827
V0
p4828
sVCacheCleanupExecutor
p4829
V1
p4830
sVValidationExecutor
p4831
V0
p4832
sVViewMutationStage
p4833
V0
p4834
sVPerDiskMemtableFlushWriter_0
p4835
V0
p4836
sVReadStage
p4837
V0
p4838
sa(dp4839
VMemtablePostFlush
p4840
V0
p4841
sVRequestResponseStage
p4842
V0
p4843
sVWrite
p4844
V0
p4845
sVSampler
p4846
V1
p4847
sVInternalResponseStage
p4848
V0
p4849
sVMutationStage
p4850
V32
p4851
sVCompactionExecutor
p4852
V6708
p4853
sVMemtableFlushWriter
p4854
V0
p4855
sVSecondaryIndexManagement
p4856
V0
p4857
sVRead
p4858
V0
p4859
sVAntiEntropyStage
p4860
V0
p4861
sVReadRepairStage
p4862
V0
p4863
sVNative-Transport-Requests
p4864
V0
p4865
sVGossipStage
p4866
V1
p4867
sVCASWrite
p4868
V0
p4869
sVPendingRangeCalculator
p4870
V0
p4871
sVCounterMutationStage
p4872
V32
p4873
sVHintsDispatcher
p4874
V0
p4875
sVCASRead
p4876
V0
p4877
sVMemtableReclaimMemory
p4878
V1
p4879
sVViewWrite
p4880
V0
p4881
sVPerDiskMemtableFlushWriter_0
p4882
V0
p4883
sVMigrationStage
p4884
V0
p4885
sVRangeSlice
p4886
V0
p4887
sVCacheCleanupExecutor
p4888
V1
p4889
sVValidationExecutor
p4890
V0
p4891
sVViewMutationStage
p4892
V0
p4893
sVMiscStage
p4894
V0
p4895
sVReadStage
p4896
V32
p4897
sa(dp4898
VMemtablePostFlush
p4899
V1
p4900
sVRequestResponseStage
p4901
V0
p4902
sVWrite
p4903
V0
p4904
sVSampler
p4905
V0
p4906
sVInternalResponseStage
p4907
V0
p4908
sVMutationStage
p4909
V32
p4910
sVCompactionExecutor
p4911
V0
p4912
sVMemtableFlushWriter
p4913
V0
p4914
sVSecondaryIndexManagement
p4915
V0
p4916
sVRead
p4917
V0
p4918
sVAntiEntropyStage
p4919
V0
p4920
sVReadRepairStage
p4921
V0
p4922
sVNative-Transport-Requests
p4923
V0
p4924
sVGossipStage
p4925
V0
p4926
sVCASWrite
p4927
V0
p4928
sVPendingRangeCalculator
p4929
V0
p4930
sVCounterMutationStage
p4931
V32
p4932
sVHintsDispatcher
p4933
V0
p4934
sVCASRead
p4935
V0
p4936
sVMemtableReclaimMemory
p4937
V0
p4938
sVViewWrite
p4939
V0
p4940
sVMiscStage
p4941
V0
p4942
sVMigrationStage
p4943
V0
p4944
sVRangeSlice
p4945
V0
p4946
sVCacheCleanupExecutor
p4947
V0
p4948
sVValidationExecutor
p4949
V0
p4950
sVViewMutationStage
p4951
V0
p4952
sVPerDiskMemtableFlushWriter_0
p4953
V1
p4954
sVReadStage
p4955
V0
p4956
sa(dp4957
VMemtablePostFlush
p4958
V0
p4959
sVRequestResponseStage
p4960
V0
p4961
sVWrite
p4962
V0
p4963
sVSampler
p4964
V1
p4965
sVInternalResponseStage
p4966
V0
p4967
sVMutationStage
p4968
V0
p4969
sVCompactionExecutor
p4970
V6708
p4971
sVMemtableFlushWriter
p4972
V0
p4973
sVSecondaryIndexManagement
p4974
V0
p4975
sVRead
p4976
V0
p4977
sVAntiEntropyStage
p4978
V0
p4979
sVReadRepairStage
p4980
V0
p4981
sVNative-Transport-Requests
p4982
V0
p4983
sVGossipStage
p4984
V1
p4985
sVCASWrite
p4986
V0
p4987
sVPendingRangeCalculator
p4988
V1
p4989
sVCounterMutationStage
p4990
V0
p4991
sVHintsDispatcher
p4992
V0
p4993
sVCASRead
p4994
V0
p4995
sVMemtableReclaimMemory
p4996
V1
p4997
sVViewWrite
p4998
V0
p4999
sVPerDiskMemtableFlushWriter_0
p5000
V0
p5001
sVMigrationStage
p5002
V0
p5003
sVRangeSlice
p5004
V0
p5005
sVCacheCleanupExecutor
p5006
V0
p5007
sVValidationExecutor
p5008
V0
p5009
sVViewMutationStage
p5010
V0
p5011
sVMiscStage
p5012
V0
p5013
sVReadStage
p5014
V0
p5015
sa(dp5016
VMemtablePostFlush
p5017
V49
p5018
sVRequestResponseStage
p5019
V0
p5020
sVWrite
p5021
V0
p5022
sVCounterMutationStage
p5023
V0
p5024
sVSampler
p5025
V0
p5026
sVInternalResponseStage
p5027
V0
p5028
sVMutationStage
p5029
V0
p5030
sVCompactionExecutor
p5031
V6708
p5032
sVMemtableFlushWriter
p5033
V31
p5034
sVSecondaryIndexManagement
p5035
V0
p5036
sVRead
p5037
V0
p5038
sVAntiEntropyStage
p5039
V0
p5040
sVReadRepairStage
p5041
V0
p5042
sVGossipStage
p5043
V0
p5044
sVCASWrite
p5045
V0
p5046
sVPendingRangeCalculator
p5047
V0
p5048
sVNative-Transport-Requests
p5049
V0
p5050
sVHintsDispatcher
p5051
V0
p5052
sVCASRead
p5053
V0
p5054
sVMemtableReclaimMemory
p5055
V0
p5056
sVViewWrite
p5057
V0
p5058
sVMiscStage
p5059
V0
p5060
sVMigrationStage
p5061
V0
p5062
sVRangeSlice
p5063
V0
p5064
sVCacheCleanupExecutor
p5065
V1
p5066
sVValidationExecutor
p5067
V0
p5068
sVViewMutationStage
p5069
V32
p5070
sVPerDiskMemtableFlushWriter_0
p5071
V0
p5072
sVReadStage
p5073
V0
p5074
sa(dp5075
VMemtablePostFlush
p5076
V49
p5077
sVRequestResponseStage
p5078
V8
p5079
sVWrite
p5080
V0
p5081
sVSampler
p5082
V1
p5083
sVInternalResponseStage
p5084
V0
p5085
sVMutationStage
p5086
V32
p5087
sVCompactionExecutor
p5088
V0
p5089
sVMemtableFlushWriter
p5090
V1
p5091
sVSecondaryIndexManagement
p5092
V0
p5093
sVRead
p5094
V0
p5095
sVAntiEntropyStage
p5096
V0
p5097
sVReadRepairStage
p5098
V8
p5099
sVNative-Transport-Requests
p5100
V0
p5101
sVGossipStage
p5102
V0
p5103
sVCASWrite
p5104
V0
p5105
sVPendingRangeCalculator
p5106
V1
p5107
sVCounterMutationStage
p5108
V0
p5109
sVHintsDispatcher
p5110
V2
p5111
sVCASRead
p5112
V0
p5113
sVMemtableReclaimMemory
p5114
V1
p5115
sVViewWrite
p5116
V0
p5117
sVMiscStage
p5118
V1
p5119
sVMigrationStage
p5120
V1
p5121
sVRangeSlice
p5122
V0
p5123
sVCacheCleanupExecutor
p5124
V0
p5125
sVValidationExecutor
p5126
V0
p5127
sVViewMutationStage
p5128
V0
p5129
sVPerDiskMemtableFlushWriter_0
p5130
V1
p5131
sVReadStage
p5132
V0
p5133
sa(dp5134
VMemtablePostFlush
p5135
V0
p5136
sVRequestResponseStage
p5137
V8
p5138
sVWrite
p5139
V0
p5140
sVCounterMutationStage
p5141
V0
p5142
sVSampler
p5143
V1
p5144
sVInternalResponseStage
p5145
V0
p5146
sVMutationStage
p5147
V0
p5148
sVCompactionExecutor
p5149
V2
p5150
sVMemtableFlushWriter
p5151
V0
p5152
sVSecondaryIndexManagement
p5153
V0
p5154
sVRead
p5155
V0
p5156
sVAntiEntropyStage
p5157
V1
p5158
sVReadRepairStage
p5159
V0
p5160
sVGossipStage
p5161
V0
p5162
sVCASWrite
p5163
V0
p5164
sVPendingRangeCalculator
p5165
V1
p5166
sVNative-Transport-Requests
p5167
V128
p5168
sVHintsDispatcher
p5169
V0
p5170
sVCASRead
p5171
V0
p5172
sVMemtableReclaimMemory
p5173
V1
p5174
sVViewWrite
p5175
V0
p5176
sVMiscStage
p5177
V0
p5178
sVMigrationStage
p5179
V1
p5180
sVRangeSlice
p5181
V0
p5182
sVCacheCleanupExecutor
p5183
V0
p5184
sVValidationExecutor
p5185
V0
p5186
sVViewMutationStage
p5187
V0
p5188
sVPerDiskMemtableFlushWriter_0
p5189
V1
p5190
sVReadStage
p5191
V32
p5192
sa(dp5193
VMemtablePostFlush
p5194
V49
p5195
sVRequestResponseStage
p5196
V0
p5197
sVWrite
p5198
V0
p5199
sVCounterMutationStage
p5200
V0
p5201
sVSampler
p5202
V0
p5203
sVInternalResponseStage
p5204
V8
p5205
sVMutationStage
p5206
V32
p5207
sVCompactionExecutor
p5208
V0
p5209
sVMemtableFlushWriter
p5210
V31
p5211
sVSecondaryIndexManagement
p5212
V0
p5213
sVRead
p5214
V0
p5215
sVAntiEntropyStage
p5216
V0
p5217
sVReadRepairStage
p5218
V0
p5219
sVGossipStage
p5220
V0
p5221
sVCASWrite
p5222
V0
p5223
sVPendingRangeCalculator
p5224
V1
p5225
sVNative-Transport-Requests
p5226
V128
p5227
sVHintsDispatcher
p5228
V0
p5229
sVCASRead
p5230
V0
p5231
sVMemtableReclaimMemory
p5232
V31
p5233
sVViewWrite
p5234
V0
p5235
sVMiscStage
p5236
V1
p5237
sVMigrationStage
p5238
V0
p5239
sVRangeSlice
p5240
V0
p5241
sVCacheCleanupExecutor
p5242
V0
p5243
sVValidationExecutor
p5244
V0
p5245
sVViewMutationStage
p5246
V0
p5247
sVPerDiskMemtableFlushWriter_0
p5248
V0
p5249
sVReadStage
p5250
V0
p5251
sa(dp5252
VMemtablePostFlush
p5253
V0
p5254
sVRequestResponseStage
p5255
V8
p5256
sVWrite
p5257
V0
p5258
sVSampler
p5259
V0
p5260
sVInternalResponseStage
p5261
V0
p5262
sVMutationStage
p5263
V0
p5264
sVCompactionExecutor
p5265
V2
p5266
sVMemtableFlushWriter
p5267
V0
p5268
sVSecondaryIndexManagement
p5269
V0
p5270
sVRead
p5271
V0
p5272
sVAntiEntropyStage
p5273
V0
p5274
sVReadRepairStage
p5275
V0
p5276
sVNative-Transport-Requests
p5277
V128
p5278
sVGossipStage
p5279
V0
p5280
sVCASWrite
p5281
V0
p5282
sVPendingRangeCalculator
p5283
V0
p5284
sVCounterMutationStage
p5285
V0
p5286
sVHintsDispatcher
p5287
V0
p5288
sVCASRead
p5289
V0
p5290
sVMemtableReclaimMemory
p5291
V1
p5292
sVViewWrite
p5293
V0
p5294
sVMiscStage
p5295
V1
p5296
sVMigrationStage
p5297
V0
p5298
sVRangeSlice
p5299
V0
p5300
sVCacheCleanupExecutor
p5301
V0
p5302
sVValidationExecutor
p5303
V0
p5304
sVViewMutationStage
p5305
V0
p5306
sVPerDiskMemtableFlushWriter_0
p5307
V0
p5308
sVReadStage
p5309
V1
p5310
sa(dp5311
VMemtablePostFlush
p5312
V1
p5313
sVRequestResponseStage
p5314
V0
p5315
sVWrite
p5316
V0
p5317
sVSampler
p5318
V1
p5319
sVInternalResponseStage
p5320
V0
p5321
sVMutationStage
p5322
V0
p5323
sVCompactionExecutor
p5324
V0
p5325
sVMemtableFlushWriter
p5326
V0
p5327
sVSecondaryIndexManagement
p5328
V0
p5329
sVRead
p5330
V0
p5331
sVAntiEntropyStage
p5332
V0
p5333
sVReadRepairStage
p5334
V8
p5335
sVNative-Transport-Requests
p5336
V0
p5337
sVGossipStage
p5338
V0
p5339
sVCASWrite
p5340
V0
p5341
sVPendingRangeCalculator
p5342
V1
p5343
sVCounterMutationStage
p5344
V0
p5345
sVHintsDispatcher
p5346
V0
p5347
sVCASRead
p5348
V0
p5349
sVMemtableReclaimMemory
p5350
V0
p5351
sVViewWrite
p5352
V0
p5353
sVMiscStage
p5354
V0
p5355
sVMigrationStage
p5356
V2472
p5357
sVRangeSlice
p5358
V0
p5359
sVCacheCleanupExecutor
p5360
V0
p5361
sVValidationExecutor
p5362
V2147483647
p5363
sVViewMutationStage
p5364
V32
p5365
sVPerDiskMemtableFlushWriter_0
p5366
V0
p5367
sVReadStage
p5368
V1
p5369
sa(dp5370
VMemtablePostFlush
p5371
V0
p5372
sVRequestResponseStage
p5373
V8
p5374
sVWrite
p5375
V0
p5376
sVSampler
p5377
V0
p5378
sVInternalResponseStage
p5379
V2473
p5380
sVMutationStage
p5381
V0
p5382
sVCompactionExecutor
p5383
V6708
p5384
sVMemtableFlushWriter
p5385
V0
p5386
sVSecondaryIndexManagement
p5387
V0
p5388
sVRead
p5389
V0
p5390
sVAntiEntropyStage
p5391
V0
p5392
sVReadRepairStage
p5393
V0
p5394
sVNative-Transport-Requests
p5395
V128
p5396
sVGossipStage
p5397
V0
p5398
sVCASWrite
p5399
V0
p5400
sVPendingRangeCalculator
p5401
V1
p5402
sVCounterMutationStage
p5403
V0
p5404
sVHintsDispatcher
p5405
V0
p5406
sVCASRead
p5407
V0
p5408
sVMemtableReclaimMemory
p5409
V31
p5410
sVViewWrite
p5411
V0
p5412
sVPerDiskMemtableFlushWriter_0
p5413
V1
p5414
sVMigrationStage
p5415
V0
p5416
sVRangeSlice
p5417
V0
p5418
sVCacheCleanupExecutor
p5419
V0
p5420
sVValidationExecutor
p5421
V0
p5422
sVViewMutationStage
p5423
V0
p5424
sVMiscStage
p5425
V0
p5426
sVReadStage
p5427
V1
p5428
sa(dp5429
VMemtablePostFlush
p5430
V49
p5431
sVRequestResponseStage
p5432
V0
p5433
sVSampler
p5434
V0
p5435
sVWrite
p5436
V0
p5437
sVCounterMutationStage
p5438
V0
p5439
sVInternalResponseStage
p5440
V0
p5441
sVMutationStage
p5442
V32
p5443
sVCompactionExecutor
p5444
V0
p5445
sVMemtableFlushWriter
p5446
V0
p5447
sVSecondaryIndexManagement
p5448
V0
p5449
sVRead
p5450
V0
p5451
sVAntiEntropyStage
p5452
V0
p5453
sVReadRepairStage
p5454
V8
p5455
sVGossipStage
p5456
V0
p5457
sVCASWrite
p5458
V0
p5459
sVPendingRangeCalculator
p5460
V0
p5461
sVNative-Transport-Requests
p5462
V0
p5463
sVHintsDispatcher
p5464
V0
p5465
sVCASRead
p5466
V0
p5467
sVMemtableReclaimMemory
p5468
V0
p5469
sVViewWrite
p5470
V0
p5471
sVMiscStage
p5472
V0
p5473
sVMigrationStage
p5474
V0
p5475
sVRangeSlice
p5476
V0
p5477
sVCacheCleanupExecutor
p5478
V0
p5479
sVValidationExecutor
p5480
V0
p5481
sVViewMutationStage
p5482
V0
p5483
sVPerDiskMemtableFlushWriter_0
p5484
V0
p5485
sVReadStage
p5486
V0
p5487
sa(dp5488
VMemtablePostFlush
p5489
V1
p5490
sVRequestResponseStage
p5491
V8
p5492
sVWrite
p5493
V0
p5494
sVCounterMutationStage
p5495
V0
p5496
sVSampler
p5497
V0
p5498
sVInternalResponseStage
p5499
V0
p5500
sVMutationStage
p5501
V739
p5502
sVCompactionExecutor
p5503
V2
p5504
sVMemtableFlushWriter
p5505
V1
p5506
sVSecondaryIndexManagement
p5507
V0
p5508
sVRead
p5509
V0
p5510
sVAntiEntropyStage
p5511
V1
p5512
sVReadRepairStage
p5513
V8
p5514
sVGossipStage
p5515
V0
p5516
sVCASWrite
p5517
V0
p5518
sVPendingRangeCalculator
p5519
V1
p5520
sVNative-Transport-Requests
p5521
V0
p5522
sVHintsDispatcher
p5523
V0
p5524
sVCASRead
p5525
V0
p5526
sVMemtableReclaimMemory
p5527
V31
p5528
sVViewWrite
p5529
V0
p5530
sVPerDiskMemtableFlushWriter_0
p5531
V0
p5532
sVMigrationStage
p5533
V0
p5534
sVRangeSlice
p5535
V0
p5536
sVCacheCleanupExecutor
p5537
V0
p5538
sVValidationExecutor
p5539
V2147483647
p5540
sVViewMutationStage
p5541
V0
p5542
sVMiscStage
p5543
V0
p5544
sVReadStage
p5545
V1
p5546
sa(dp5547
VMemtablePostFlush
p5548
V0
p5549
sVRequestResponseStage
p5550
V0
p5551
sVSampler
p5552
V0
p5553
sVWrite
p5554
V0
p5555
sVNative-Transport-Requests
p5556
V0
p5557
sVInternalResponseStage
p5558
V2473
p5559
sVMutationStage
p5560
V32
p5561
sVCompactionExecutor
p5562
V0
p5563
sVMemtableFlushWriter
p5564
V1
p5565
sVSecondaryIndexManagement
p5566
V0
p5567
sVRead
p5568
V0
p5569
sVAntiEntropyStage
p5570
V0
p5571
sVReadRepairStage
p5572
V8
p5573
sVGossipStage
p5574
V1
p5575
sVCASWrite
p5576
V0
p5577
sVPendingRangeCalculator
p5578
V0
p5579
sVCounterMutationStage
p5580
V0
p5581
sVHintsDispatcher
p5582
V2
p5583
sVCASRead
p5584
V0
p5585
sVMemtableReclaimMemory
p5586
V0
p5587
sVViewWrite
p5588
V0
p5589
sVMiscStage
p5590
V1
p5591
sVMigrationStage
p5592
V1
p5593
sVRangeSlice
p5594
V0
p5595
sVCacheCleanupExecutor
p5596
V0
p5597
sVValidationExecutor
p5598
V2147483647
p5599
sVViewMutationStage
p5600
V0
p5601
sVPerDiskMemtableFlushWriter_0
p5602
V31
p5603
sVReadStage
p5604
V32
p5605
sa(dp5606
VMemtablePostFlush
p5607
V0
p5608
sVRequestResponseStage
p5609
V0
p5610
sVWrite
p5611
V0
p5612
sVCounterMutationStage
p5613
V0
p5614
sVSampler
p5615
V0
p5616
sVInternalResponseStage
p5617
V0
p5618
sVMutationStage
p5619
V32
p5620
sVCompactionExecutor
p5621
V6708
p5622
sVMemtableFlushWriter
p5623
V1
p5624
sVSecondaryIndexManagement
p5625
V0
p5626
sVRead
p5627
V0
p5628
sVAntiEntropyStage
p5629
V1
p5630
sVReadRepairStage
p5631
V0
p5632
sVGossipStage
p5633
V0
p5634
sVCASWrite
p5635
V0
p5636
sVPendingRangeCalculator
p5637
V0
p5638
sVNative-Transport-Requests
p5639
V0
p5640
sVHintsDispatcher
p5641
V2
p5642
sVCASRead
p5643
V0
p5644
sVMemtableReclaimMemory
p5645
V31
p5646
sVViewWrite
p5647
V0
p5648
sVMiscStage
p5649
V0
p5650
sVMigrationStage
p5651
V2473
p5652
sVRangeSlice
p5653
V0
p5654
sVCacheCleanupExecutor
p5655
V0
p5656
sVValidationExecutor
p5657
V0
p5658
sVViewMutationStage
p5659
V0
p5660
sVPerDiskMemtableFlushWriter_0
p5661
V1
p5662
sVReadStage
p5663
V1
p5664
sa(dp5665
VMemtablePostFlush
p5666
V0
p5667
sVRequestResponseStage
p5668
V0
p5669
sVSampler
p5670
V1
p5671
sVWrite
p5672
V0
p5673
sVNative-Transport-Requests
p5674
V0
p5675
sVInternalResponseStage
p5676
V0
p5677
sVMutationStage
p5678
V0
p5679
sVCompactionExecutor
p5680
V2
p5681
sVMemtableFlushWriter
p5682
V0
p5683
sVSecondaryIndexManagement
p5684
V1
p5685
sVRead
p5686
V0
p5687
sVAntiEntropyStage
p5688
V1
p5689
sVReadRepairStage
p5690
V8
p5691
sVGossipStage
p5692
V0
p5693
sVCASWrite
p5694
V0
p5695
sVPendingRangeCalculator
p5696
V1
p5697
sVCounterMutationStage
p5698
V0
p5699
sVHintsDispatcher
p5700
V2
p5701
sVCASRead
p5702
V0
p5703
sVMemtableReclaimMemory
p5704
V1
p5705
sVViewWrite
p5706
V0
p5707
sVPerDiskMemtableFlushWriter_0
p5708
V1
p5709
sVMigrationStage
p5710
V0
p5711
sVRangeSlice
p5712
V0
p5713
sVCacheCleanupExecutor
p5714
V0
p5715
sVValidationExecutor
p5716
V0
p5717
sVViewMutationStage
p5718
V0
p5719
sVMiscStage
p5720
V0
p5721
sVReadStage
p5722
V0
p5723
sa(dp5724
VMemtablePostFlush
p5725
V0
p5726
sVRequestResponseStage
p5727
V0
p5728
sVWrite
p5729
V0
p5730
sVCounterMutationStage
p5731
V0
p5732
sVSampler
p5733
V1
p5734
sVInternalResponseStage
p5735
V0
p5736
sVMutationStage
p5737
V32
p5738
sVCompactionExecutor
p5739
V0
p5740
sVMemtableFlushWriter
p5741
V1
p5742
sVSecondaryIndexManagement
p5743
V0
p5744
sVRead
p5745
V0
p5746
sVAntiEntropyStage
p5747
V0
p5748
sVReadRepairStage
p5749
V0
p5750
sVGossipStage
p5751
V1
p5752
sVCASWrite
p5753
V0
p5754
sVPendingRangeCalculator
p5755
V0
p5756
sVNative-Transport-Requests
p5757
V0
p5758
sVHintsDispatcher
p5759
V0
p5760
sVCASRead
p5761
V0
p5762
sVMemtableReclaimMemory
p5763
V1
p5764
sVViewWrite
p5765
V0
p5766
sVMiscStage
p5767
V0
p5768
sVMigrationStage
p5769
V2474
p5770
sVRangeSlice
p5771
V0
p5772
sVCacheCleanupExecutor
p5773
V1
p5774
sVValidationExecutor
p5775
V2147483647
p5776
sVViewMutationStage
p5777
V0
p5778
sVPerDiskMemtableFlushWriter_0
p5779
V1
p5780
sVReadStage
p5781
V32
p5782
sa(dp5783
VMemtablePostFlush
p5784
V0
p5785
sVRequestResponseStage
p5786
V0
p5787
sVWrite
p5788
V0
p5789
sVCounterMutationStage
p5790
V0
p5791
sVSampler
p5792
V1
p5793
sVInternalResponseStage
p5794
V0
p5795
sVMutationStage
p5796
V739
p5797
sVCompactionExecutor
p5798
V0
p5799
sVMemtableFlushWriter
p5800
V0
p5801
sVSecondaryIndexManagement
p5802
V1
p5803
sVRead
p5804
V0
p5805
sVAntiEntropyStage
p5806
V0
p5807
sVReadRepairStage
p5808
V0
p5809
sVGossipStage
p5810
V0
p5811
sVCASWrite
p5812
V0
p5813
sVPendingRangeCalculator
p5814
V1
p5815
sVNative-Transport-Requests
p5816
V0
p5817
sVHintsDispatcher
p5818
V0
p5819
sVCASRead
p5820
V0
p5821
sVMemtableReclaimMemory
p5822
V1
p5823
sVViewWrite
p5824
V0
p5825
sVPerDiskMemtableFlushWriter_0
p5826
V31
p5827
sVMigrationStage
p5828
V2474
p5829
sVRangeSlice
p5830
V0
p5831
sVCacheCleanupExecutor
p5832
V0
p5833
sVValidationExecutor
p5834
V0
p5835
sVViewMutationStage
p5836
V32
p5837
sVMiscStage
p5838
V0
p5839
sVReadStage
p5840
V1
p5841
sa(dp5842
VMemtablePostFlush
p5843
V1
p5844
sVRequestResponseStage
p5845
V0
p5846
sVWrite
p5847
V0
p5848
sVCounterMutationStage
p5849
V0
p5850
sVSampler
p5851
V0
p5852
sVInternalResponseStage
p5853
V8
p5854
sVMutationStage
p5855
V32
p5856
sVCompactionExecutor
p5857
V0
p5858
sVMemtableFlushWriter
p5859
V0
p5860
sVSecondaryIndexManagement
p5861
V0
p5862
sVRead
p5863
V0
p5864
sVAntiEntropyStage
p5865
V0
p5866
sVReadRepairStage
p5867
V0
p5868
sVGossipStage
p5869
V1
p5870
sVCASWrite
p5871
V0
p5872
sVPendingRangeCalculator
p5873
V0
p5874
sVNative-Transport-Requests
p5875
V128
p5876
sVHintsDispatcher
p5877
V0
p5878
sVCASRead
p5879
V0
p5880
sVMemtableReclaimMemory
p5881
V31
p5882
sVViewWrite
p5883
V0
p5884
sVPerDiskMemtableFlushWriter_0
p5885
V1
p5886
sVMigrationStage
p5887
V2474
p5888
sVRangeSlice
p5889
V0
p5890
sVCacheCleanupExecutor
p5891
V0
p5892
sVValidationExecutor
p5893
V0
p5894
sVViewMutationStage
p5895
V0
p5896
sVMiscStage
p5897
V1
p5898
sVReadStage
p5899
V1
p5900
sa.